(lp0
(cnumpy.core.multiarray
scalar
p1
(cnumpy
dtype
p2
(S'S11'
p3
I0
I1
tp4
Rp5
(I3
S'|'
p6
NNNI11
I1
I0
tp7
bS'Afghanistan'
p8
tp9
Rp10
g1
(g2
(S'S48'
p11
I0
I1
tp12
Rp13
(I3
S'|'
p14
NNNI48
I1
I0
tp15
bS'Contraceptive prevalence (% of women ages 15-49)'
p16
tp17
Rp18
(lp19
(lp20
tp21
a(g1
(g2
(S'S7'
p22
I0
I1
tp23
Rp24
(I3
S'|'
p25
NNNI7
I1
I0
tp26
bS'Albania'
p27
tp28
Rp29
g1
(g2
(S'S48'
p30
I0
I1
tp31
Rp32
(I3
S'|'
p33
NNNI48
I1
I0
tp34
bS'Contraceptive prevalence (% of women ages 15-49)'
p35
tp36
Rp37
(lp38
g1
(g2
(S'f8'
p39
I0
I1
tp40
Rp41
(I3
S'<'
p42
NNNI-1
I-1
I0
tp43
bS'\x00\x00\x00\x00\xe0,\xe0@'
p44
tp45
Rp46
ag1
(g41
S'\x00\x00\x00\x00\xc0\xd9\xe6@'
p47
tp48
Rp49
ag1
(g41
S'\x00\x00\x00\x00\xc0\xca\xf0@'
p50
tp51
Rp52
ag1
(g41
S'\x00\x00\x00\x00\xb05\xf5@'
p53
tp54
Rp55
ag1
(g41
S'\x00\x00\x00\x00.k\xf6@'
p56
tp57
Rp58
ag1
(g41
S'\x00\x00\x00@\x9e\x19\xf8@'
p59
tp60
Rp61
ag1
(g41
S'\x06\x81\x95\x9b\x04\x01\xfa@'
p62
tp63
Rp64
a(lp65
I2008
aI2009
aI2010
aI2011
aI2012
aI2013
aI2014
atp66
a(g1
(g2
(S'S7'
p67
I0
I1
tp68
Rp69
(I3
S'|'
p70
NNNI7
I1
I0
tp71
bS'Algeria'
p72
tp73
Rp74
g1
(g2
(S'S48'
p75
I0
I1
tp76
Rp77
(I3
S'|'
p78
NNNI48
I1
I0
tp79
bS'Contraceptive prevalence (% of women ages 15-49)'
p80
tp81
Rp82
(lp83
g1
(g41
S'\x00\x00\x00\x00(T\x10A'
p84
tp85
Rp86
ag1
(g41
S'\x00\x00\x00\x00\x1c\xfd\x12A'
p87
tp88
Rp89
ag1
(g41
S'\x00\x00\x00\x00\x90k\x08A'
p90
tp91
Rp92
ag1
(g41
S'\x00\x00\x00\x00\xa0{\x0bA'
p93
tp94
Rp95
ag1
(g41
S'-C\x1c\xeby\x87\x0eA'
p96
tp97
Rp98
ag1
(g41
S'[v-v\xa3\x13\x11A'
p99
tp100
Rp101
ag1
(g41
S'F\xa33i\xd2\x0c\x12A'
p102
tp103
Rp104
ag1
(g41
S'\xb1\x82\x171bg\x13A'
p105
tp106
Rp107
ag1
(g41
S'\xa7\xf1\x91\x8e\xce\xef\x14A'
p108
tp109
Rp110
a(lp111
I2001
aI2002
aI2008
aI2009
aI2010
aI2011
aI2012
aI2013
aI2014
atp112
a(g1
(g2
(S'S14'
p113
I0
I1
tp114
Rp115
(I3
S'|'
p116
NNNI14
I1
I0
tp117
bS'American Samoa'
p118
tp119
Rp120
g1
(g2
(S'S48'
p121
I0
I1
tp122
Rp123
(I3
S'|'
p124
NNNI48
I1
I0
tp125
bS'Contraceptive prevalence (% of women ages 15-49)'
p126
tp127
Rp128
(lp129
(lp130
tp131
a(g1
(g2
(S'S7'
p132
I0
I1
tp133
Rp134
(I3
S'|'
p135
NNNI7
I1
I0
tp136
bS'Andorra'
p137
tp138
Rp139
g1
(g2
(S'S48'
p140
I0
I1
tp141
Rp142
(I3
S'|'
p143
NNNI48
I1
I0
tp144
bS'Contraceptive prevalence (% of women ages 15-49)'
p145
tp146
Rp147
(lp148
(lp149
tp150
a(g1
(g2
(S'S6'
p151
I0
I1
tp152
Rp153
(I3
S'|'
p154
NNNI6
I1
I0
tp155
bS'Angola'
p156
tp157
Rp158
g1
(g2
(S'S48'
p159
I0
I1
tp160
Rp161
(I3
S'|'
p162
NNNI48
I1
I0
tp163
bS'Contraceptive prevalence (% of women ages 15-49)'
p164
tp165
Rp166
(lp167
g1
(g41
S'\x00\x00\x00\x00\x1a\xa5$A'
p168
tp169
Rp170
ag1
(g41
S'\x00\x00\x00\x00`\xe3&A'
p171
tp172
Rp173
ag1
(g41
S'\x00\x00\x00\x00\xd0\xdc+A'
p174
tp175
Rp176
a(lp177
I2012
aI2013
aI2014
atp178
a(g1
(g2
(S'S19'
p179
I0
I1
tp180
Rp181
(I3
S'|'
p182
NNNI19
I1
I0
tp183
bS'Antigua and Barbuda'
p184
tp185
Rp186
g1
(g2
(S'S48'
p187
I0
I1
tp188
Rp189
(I3
S'|'
p190
NNNI48
I1
I0
tp191
bS'Contraceptive prevalence (% of women ages 15-49)'
p192
tp193
Rp194
(lp195
g1
(g41
S'\x00\x00\x00\x00 \xa4\xe0@'
p196
tp197
Rp198
ag1
(g41
S'\x00\x00\x00\x00\x80\xcc\xdf@'
p199
tp200
Rp201
ag1
(g41
S'\x00\x00\x00\x00\x80w\xdc@'
p202
tp203
Rp204
ag1
(g41
S'\x00\x00\x00\x00\xc0\t\xd8@'
p205
tp206
Rp207
ag1
(g41
S'R\xb8\x1e\x85\x83h\xd9@'
p208
tp209
Rp210
ag1
(g41
S'\xbe\x9f\x1a/ZP\xdb@'
p211
tp212
Rp213
ag1
(g41
S'\x0b\xb4;\x84\xbfx\xdd@'
p214
tp215
Rp216
a(lp217
I2008
aI2009
aI2010
aI2011
aI2012
aI2013
aI2014
atp218
a(g1
(g2
(S'S10'
p219
I0
I1
tp220
Rp221
(I3
S'|'
p222
NNNI10
I1
I0
tp223
bS'Arab World'
p224
tp225
Rp226
g1
(g2
(S'S48'
p227
I0
I1
tp228
Rp229
(I3
S'|'
p230
NNNI48
I1
I0
tp231
bS'Contraceptive prevalence (% of women ages 15-49)'
p232
tp233
Rp234
(lp235
g1
(g41
S'\x00\x00\x00P>\x8e}A'
p236
tp237
Rp238
ag1
(g41
S'd\xcc]\x7f\xe9#\x81A'
p239
tp240
Rp241
ag1
(g41
S'\xc0\xae\x96*\x87d\x81A'
p242
tp243
Rp244
ag1
(g41
S'r\xcc\xe8\x84$\xee\x82A'
p245
tp246
Rp247
ag1
(g41
S'\xc2J*\xacH\xd0\x84A'
p248
tp249
Rp250
ag1
(g41
S'-\xdd\x135\xb8\xa7\x85A'
p251
tp252
Rp253
ag1
(g41
S'gj\xad\xcaB\xd0\x86A'
p254
tp255
Rp256
a(lp257
I2008
aI2009
aI2010
aI2011
aI2012
aI2013
aI2014
atp258
a(g1
(g2
(S'S9'
p259
I0
I1
tp260
Rp261
(I3
S'|'
p262
NNNI9
I1
I0
tp263
bS'Argentina'
p264
tp265
Rp266
g1
(g2
(S'S48'
p267
I0
I1
tp268
Rp269
(I3
S'|'
p270
NNNI48
I1
I0
tp271
bS'Contraceptive prevalence (% of women ages 15-49)'
p272
tp273
Rp274
(lp275
g1
(g41
S'\x00\x00\x00\x00\x02x1A'
p276
tp277
Rp278
ag1
(g41
S'\x00\x00\x00\x00\x06B$A'
p279
tp280
Rp281
ag1
(g41
S'\x00\x00\x00\x00`\xee A'
p282
tp283
Rp284
ag1
(g41
S'\x00\x00\x00\x00>H/A'
p285
tp286
Rp287
ag1
(g41
S'\x00\x00\x00\x007\x1a3A'
p288
tp289
Rp290
ag1
(g41
S'\x00\x00\x00\x00\xc4\xbd6A'
p291
tp292
Rp293
ag1
(g41
S'\x00\x00\x00\x00&\xd3:A'
p294
tp295
Rp296
ag1
(g41
S'\x00\x00\x00\x00S\x99<A'
p297
tp298
Rp299
ag1
(g41
S'\x00\x00\x00\x00Zy>A'
p300
tp301
Rp302
ag1
(g41
S'\x02\x9a\x08[\xd3\xd28A'
p303
tp304
Rp305
ag1
(g41
S'5\x19D\xe2+\xd9>A'
p306
tp307
Rp308
ag1
(g41
S'{\xd4g\x05\x03y@A'
p309
tp310
Rp311
ag1
(g41
S'\xb4\xd58\xc5\xafO>A'
p312
tp313
Rp314
ag1
(g41
S'G\x9d\x0c\xd6YZ@A'
p315
tp316
Rp317
a(lp318
I2001
aI2002
aI2003
aI2004
aI2005
aI2006
aI2007
aI2008
aI2009
aI2010
aI2011
aI2012
aI2013
aI2014
atp319
a(g1
(g2
(S'S7'
p320
I0
I1
tp321
Rp322
(I3
S'|'
p323
NNNI7
I1
I0
tp324
bS'Armenia'
p325
tp326
Rp327
g1
(g2
(S'S48'
p328
I0
I1
tp329
Rp330
(I3
S'|'
p331
NNNI48
I1
I0
tp332
bS'Contraceptive prevalence (% of women ages 15-49)'
p333
tp334
Rp335
(lp336
(lp337
tp338
a(g1
(g2
(S'S5'
p339
I0
I1
tp340
Rp341
(I3
S'|'
p342
NNNI5
I1
I0
tp343
bS'Aruba'
p344
tp345
Rp346
g1
(g2
(S'S48'
p347
I0
I1
tp348
Rp349
(I3
S'|'
p350
NNNI48
I1
I0
tp351
bS'Contraceptive prevalence (% of women ages 15-49)'
p352
tp353
Rp354
(lp355
g1
(g41
S'\x00\x00\x00\x00\xc0z\x00A'
p356
tp357
Rp358
ag1
(g41
S'\x00\x00\x00\x00\x00\x17\x01A'
p359
tp360
Rp361
ag1
(g41
S'\x00\x00\x00\x00\x80\x84\xfe@'
p362
tp363
Rp364
ag1
(g41
S'\x00\x00\x00\x00\x00\xbd\xff@'
p365
tp366
Rp367
ag1
(g41
S'\x00\x00\x00\x00\x10\xc6\x00A'
p368
tp369
Rp370
ag1
(g41
S'\x00\x00\x00\x00\x1e\x08\x02A'
p371
tp372
Rp373
ag1
(g41
S'w\xbe\x9fZ\xcat\x03A'
p374
tp375
Rp376
a(lp377
I2008
aI2009
aI2010
aI2011
aI2012
aI2013
aI2014
atp378
a(g1
(g2
(S'S9'
p379
I0
I1
tp380
Rp381
(I3
S'|'
p382
NNNI9
I1
I0
tp383
bS'Australia'
p384
tp385
Rp386
g1
(g2
(S'S48'
p387
I0
I1
tp388
Rp389
(I3
S'|'
p390
NNNI48
I1
I0
tp391
bS'Contraceptive prevalence (% of women ages 15-49)'
p392
tp393
Rp394
(lp395
g1
(g41
S'\x00\x00\x00\x00\x89\x07KA'
p396
tp397
Rp398
ag1
(g41
S'\x00\x00\x00\x80\xbe\xccLA'
p399
tp400
Rp401
ag1
(g41
S'\x00\x00\x00\x00\xf3\x9cPA'
p402
tp403
Rp404
ag1
(g41
S'\x00\x00\x00\x00\xe7&RA'
p405
tp406
Rp407
ag1
(g41
S'\x00\x00\x00\x80\xd0JSA'
p408
tp409
Rp410
ag1
(g41
S'\x00\x00\x00@Y\xcdSA'
p411
tp412
Rp413
ag1
(g41
S'\x00\x00\x00\x80b\xe7UA'
p414
tp415
Rp416
ag1
(g41
S'\x00\x00\x00\x80\xaa\xfeWA'
p417
tp418
Rp419
ag1
(g41
S'$(~\x8cQGWA'
p420
tp421
Rp422
ag1
(g41
S'$f\x0f_\x01\xa7WA'
p423
tp424
Rp425
ag1
(g41
S'\x91\xff\xf6\xcf\xcaoYA'
p426
tp427
Rp428
ag1
(g41
S'\xb2\xca7#?\xbfZA'
p429
tp430
Rp431
ag1
(g41
S'eo\xa7\xbf\xc0\xb0[A'
p432
tp433
Rp434
ag1
(g41
S'"\xc0-g\xde\xe5[A'
p435
tp436
Rp437
a(lp438
I2001
aI2002
aI2003
aI2004
aI2005
aI2006
aI2007
aI2008
aI2009
aI2010
aI2011
aI2012
aI2013
aI2014
atp439
a(g1
(g2
(S'S7'
p440
I0
I1
tp441
Rp442
(I3
S'|'
p443
NNNI7
I1
I0
tp444
bS'Austria'
p445
tp446
Rp447
g1
(g2
(S'S48'
p448
I0
I1
tp449
Rp450
(I3
S'|'
p451
NNNI48
I1
I0
tp452
bS'Contraceptive prevalence (% of women ages 15-49)'
p453
tp454
Rp455
(lp456
g1
(g41
S'\x00\x00\x00\x00xU\x16A'
p457
tp458
Rp459
ag1
(g41
S'\x9f<,\xd4r-\x17A'
p460
tp461
Rp462
ag1
(g41
S'\xf5\xc0\xe0}\xcf3\x14A'
p463
tp464
Rp465
ag1
(g41
S'\x00\x00\x00\x00\xf4c\x15A'
p466
tp467
Rp468
ag1
(g41
S'T\xe3\xa5\x1b\x15\x9c\x16A'
p469
tp470
Rp471
ag1
(g41
S'\x94\x87\x85J0N\x18A'
p472
tp473
Rp474
ag1
(g41
S'\xdb_\x87\xd5\xbd9\x1aA'
p475
tp476
Rp477
a(lp478
I2008
aI2009
aI2010
aI2011
aI2012
aI2013
aI2014
atp479
a(g1
(g2
(S'S10'
p480
I0
I1
tp481
Rp482
(I3
S'|'
p483
NNNI10
I1
I0
tp484
bS'Azerbaijan'
p485
tp486
Rp487
g1
(g2
(S'S48'
p488
I0
I1
tp489
Rp490
(I3
S'|'
p491
NNNI48
I1
I0
tp492
bS'Contraceptive prevalence (% of women ages 15-49)'
p493
tp494
Rp495
(lp496
(lp497
tp498
a(g1
(g2
(S'S7'
p499
I0
I1
tp500
Rp501
(I3
S'|'
p502
NNNI7
I1
I0
tp503
bS'Bahrain'
p504
tp505
Rp506
g1
(g2
(S'S48'
p507
I0
I1
tp508
Rp509
(I3
S'|'
p510
NNNI48
I1
I0
tp511
bS'Contraceptive prevalence (% of women ages 15-49)'
p512
tp513
Rp514
(lp515
g1
(g41
S'\x00\x00\x00\x00\x00!\rA'
p516
tp517
Rp518
ag1
(g41
S'\x00\x00\x00\x00Lp\x10A'
p519
tp520
Rp521
ag1
(g41
S'\x00\x00\x00\x00\xdc\x13\x11A'
p522
tp523
Rp524
ag1
(g41
S'\x00\x00\x00\x00\x90\xb2\x11A'
p525
tp526
Rp527
ag1
(g41
S'\x17\xd9\xce\xf7\xcd\xb4\x12A'
p528
tp529
Rp530
ag1
(g41
S'\x92\\\xfe\x03\xf7\x1b\x14A'
p531
tp532
Rp533
ag1
(g41
S'\x11\x814u\xa7\xb2\x15A'
p534
tp535
Rp536
a(lp537
I2008
aI2009
aI2010
aI2011
aI2012
aI2013
aI2014
atp538
a(g1
(g2
(S'S10'
p539
I0
I1
tp540
Rp541
(I3
S'|'
p542
NNNI10
I1
I0
tp543
bS'Bangladesh'
p544
tp545
Rp546
g1
(g2
(S'S48'
p547
I0
I1
tp548
Rp549
(I3
S'|'
p550
NNNI48
I1
I0
tp551
bS'Contraceptive prevalence (% of women ages 15-49)'
p552
tp553
Rp554
(lp555
g1
(g41
S'\x00\x00\x00\x00\x1c\xd5\x1bA'
p556
tp557
Rp558
ag1
(g41
S'\x00\x00\x00\x00D\xae\x1dA'
p559
tp560
Rp561
ag1
(g41
S'\x00\x00\x00\x008\xd4!A'
p562
tp563
Rp564
ag1
(g41
S'\x00\x00\x00\x00\x10\x14#A'
p565
tp566
Rp567
ag1
(g41
S'\x00\x00\x00\x00h\xcd%A'
p568
tp569
Rp570
ag1
(g41
S'\x00\x00\x00\x00\xb8\xaf(A'
p571
tp572
Rp573
ag1
(g41
S'\x00\x00\x00\x000\x83+A'
p574
tp575
Rp576
ag1
(g41
S'\x00\x00\x00\x00\xae\xd8-A'
p577
tp578
Rp579
ag1
(g41
S'\x00\x00\x00\x00\x80\xa60A'
p580
tp581
Rp582
ag1
(g41
S'\x00\x00\x00\x00\xa9\t2A'
p583
tp584
Rp585
ag1
(g41
S'\x00\x00\x00\x00C\xb14A'
p586
tp587
Rp588
ag1
(g41
S'\x83\xc0\xca\xa1*\xd95A'
p589
tp590
Rp591
ag1
(g41
S'\x9a\x99\x999\xcf\xe75A'
p592
tp593
Rp594
ag1
(g41
S'\xaa\x82Q\xa5\x84\xfa7A'
p595
tp596
Rp597
a(lp598
I2001
aI2002
aI2003
aI2004
aI2005
aI2006
aI2007
aI2008
aI2009
aI2010
aI2011
aI2012
aI2013
aI2014
atp599
a(g1
(g2
(S'S8'
p600
I0
I1
tp601
Rp602
(I3
S'|'
p603
NNNI8
I1
I0
tp604
bS'Barbados'
p605
tp606
Rp607
g1
(g2
(S'S48'
p608
I0
I1
tp609
Rp610
(I3
S'|'
p611
NNNI48
I1
I0
tp612
bS'Contraceptive prevalence (% of women ages 15-49)'
p613
tp614
Rp615
(lp616
g1
(g41
S'\x00\x00\x00\x00\xa0R\xf8@'
p617
tp618
Rp619
ag1
(g41
S'\x00\x00\x00\x00pM\xf5@'
p620
tp621
Rp622
ag1
(g41
S'\x00\x00\x00\x00pP\xf2@'
p623
tp624
Rp625
ag1
(g41
S'\x00\x00\x00\x00\x80\xa2\xf3@'
p626
tp627
Rp628
ag1
(g41
S'\x00\x00\x00\x00\xc0\xd2\xf2@'
p629
tp630
Rp631
ag1
(g41
S'\x00\x00\x00\x00\x00\xd6\xef@'
p632
tp633
Rp634
ag1
(g41
S'\x00\x00\x00\x00\x00\x9a\xf0@'
p635
tp636
Rp637
a(lp638
I2008
aI2009
aI2010
aI2011
aI2012
aI2013
aI2014
atp639
a(g1
(g2
(S'S7'
p640
I0
I1
tp641
Rp642
(I3
S'|'
p643
NNNI7
I1
I0
tp644
bS'Belarus'
p645
tp646
Rp647
g1
(g2
(S'S48'
p648
I0
I1
tp649
Rp650
(I3
S'|'
p651
NNNI48
I1
I0
tp652
bS'Contraceptive prevalence (% of women ages 15-49)'
p653
tp654
Rp655
(lp656
(lp657
tp658
a(g1
(g2
(S'S7'
p659
I0
I1
tp660
Rp661
(I3
S'|'
p662
NNNI7
I1
I0
tp663
bS'Belgium'
p664
tp665
Rp666
g1
(g2
(S'S48'
p667
I0
I1
tp668
Rp669
(I3
S'|'
p670
NNNI48
I1
I0
tp671
bS'Contraceptive prevalence (% of women ages 15-49)'
p672
tp673
Rp674
(lp675
g1
(g41
S'\x00\x00\x00\xc0\nKSA'
p676
tp677
Rp678
ag1
(g41
S'\x00\x00\x00@\xef}SA'
p679
tp680
Rp681
ag1
(g41
S'\x00\x00\x00\x80\x129VA'
p682
tp683
Rp684
ag1
(g41
S'\x00\x00\x00\xc0\x82\xbaXA'
p685
tp686
Rp687
ag1
(g41
S'\x00\x00\x00\x80\x05\xc5[A'
p688
tp689
Rp690
ag1
(g41
S'\x00\x00\x00\x80\x12\x19^A'
p691
tp692
Rp693
ag1
(g41
S'\x00\x00\x00\xa0\x18\x9c`A'
p694
tp695
Rp696
ag1
(g41
S'\x00\x00\x00\xe0\x8c\x90cA'
p697
tp698
Rp699
ag1
(g41
S'\x00\x00\x00\xc0e\xdcdA'
p700
tp701
Rp702
ag1
(g41
S'\x00\x00\x00\xc0\x0e\x81bA'
p703
tp704
Rp705
ag1
(g41
S'\x00\x00\x00\x00\xaf\xf3dA'
p706
tp707
Rp708
ag1
(g41
S'\x14\xaeG\x99\xb6\x0beA'
p709
tp710
Rp711
ag1
(g41
S'\x89A`6,xdA'
p712
tp713
Rp714
ag1
(g41
S'\x86\x0f\xdb+\xc0xdA'
p715
tp716
Rp717
a(lp718
I2001
aI2002
aI2003
aI2004
aI2005
aI2006
aI2007
aI2008
aI2009
aI2010
aI2011
aI2012
aI2013
aI2014
atp719
a(g1
(g2
(S'S6'
p720
I0
I1
tp721
Rp722
(I3
S'|'
p723
NNNI6
I1
I0
tp724
bS'Belize'
p725
tp726
Rp727
g1
(g2
(S'S48'
p728
I0
I1
tp729
Rp730
(I3
S'|'
p731
NNNI48
I1
I0
tp732
bS'Contraceptive prevalence (% of women ages 15-49)'
p733
tp734
Rp735
(lp736
g1
(g41
S'\x00\x00\x00\x00\xe0"\xe3@'
p737
tp738
Rp739
ag1
(g41
S'\x00\x00\x00\x00`\xa8\xe2@'
p740
tp741
Rp742
ag1
(g41
S'\x00\x00\x00\x00\x00\x9c\xde@'
p743
tp744
Rp745
ag1
(g41
S'\x00\x00\x00\x00\xc0+\xdf@'
p746
tp747
Rp748
ag1
(g41
S'\x00\x00\x00\x00\x00\xb3\xe0@'
p749
tp750
Rp751
ag1
(g41
S'\x00\x00\x00\x00\xa0\xf3\xe1@'
p752
tp753
Rp754
ag1
(g41
S'\xb8\x1e\x85\xeb\xad^\xe3@'
p755
tp756
Rp757
a(lp758
I2008
aI2009
aI2010
aI2011
aI2012
aI2013
aI2014
atp759
a(g1
(g2
(S'S5'
p760
I0
I1
tp761
Rp762
(I3
S'|'
p763
NNNI5
I1
I0
tp764
bS'Benin'
p765
tp766
Rp767
g1
(g2
(S'S48'
p768
I0
I1
tp769
Rp770
(I3
S'|'
p771
NNNI48
I1
I0
tp772
bS'Contraceptive prevalence (% of women ages 15-49)'
p773
tp774
Rp775
(lp776
g1
(g41
S'\x00\x00\x00\x00\x80O\x12A'
p777
tp778
Rp779
ag1
(g41
S'\x00\x00\x00\x00\xd0\xa6\x10A'
p780
tp781
Rp782
ag1
(g41
S'H\xe1z\x14 U\x13A'
p783
tp784
Rp785
ag1
(g41
S'\xe6yp\xb79o\x14A'
p786
tp787
Rp788
ag1
(g41
S'\xa4\x1c\xcc>\x91\xf7\x15A'
p789
tp790
Rp791
ag1
(g41
S'y\xe0\x8cE\xd4\xb3\x17A'
p792
tp793
Rp794
a(lp795
I2009
aI2010
aI2011
aI2012
aI2013
aI2014
atp796
a(g1
(g2
(S'S7'
p797
I0
I1
tp798
Rp799
(I3
S'|'
p800
NNNI7
I1
I0
tp801
bS'Bermuda'
p802
tp803
Rp804
g1
(g2
(S'S48'
p805
I0
I1
tp806
Rp807
(I3
S'|'
p808
NNNI48
I1
I0
tp809
bS'Contraceptive prevalence (% of women ages 15-49)'
p810
tp811
Rp812
(lp813
(lp814
tp815
a(g1
(g2
(S'S6'
p816
I0
I1
tp817
Rp818
(I3
S'|'
p819
NNNI6
I1
I0
tp820
bS'Bhutan'
p821
tp822
Rp823
g1
(g2
(S'S48'
p824
I0
I1
tp825
Rp826
(I3
S'|'
p827
NNNI48
I1
I0
tp828
bS'Contraceptive prevalence (% of women ages 15-49)'
p829
tp830
Rp831
(lp832
(lp833
tp834
a(g1
(g2
(S'S7'
p835
I0
I1
tp836
Rp837
(I3
S'|'
p838
NNNI7
I1
I0
tp839
bS'Bolivia'
p840
tp841
Rp842
g1
(g2
(S'S48'
p843
I0
I1
tp844
Rp845
(I3
S'|'
p846
NNNI48
I1
I0
tp847
bS'Contraceptive prevalence (% of women ages 15-49)'
p848
tp849
Rp850
(lp851
(lp852
tp853
a(g1
(g2
(S'S22'
p854
I0
I1
tp855
Rp856
(I3
S'|'
p857
NNNI22
I1
I0
tp858
bS'Bosnia and Herzegovina'
p859
tp860
Rp861
g1
(g2
(S'S48'
p862
I0
I1
tp863
Rp864
(I3
S'|'
p865
NNNI48
I1
I0
tp866
bS'Contraceptive prevalence (% of women ages 15-49)'
p867
tp868
Rp869
(lp870
(lp871
tp872
a(g1
(g2
(S'S8'
p873
I0
I1
tp874
Rp875
(I3
S'|'
p876
NNNI8
I1
I0
tp877
bS'Botswana'
p878
tp879
Rp880
g1
(g2
(S'S48'
p881
I0
I1
tp882
Rp883
(I3
S'|'
p884
NNNI48
I1
I0
tp885
bS'Contraceptive prevalence (% of women ages 15-49)'
p886
tp887
Rp888
(lp889
(lp890
tp891
a(g1
(g2
(S'S6'
p892
I0
I1
tp893
Rp894
(I3
S'|'
p895
NNNI6
I1
I0
tp896
bS'Brazil'
p897
tp898
Rp899
g1
(g2
(S'S48'
p900
I0
I1
tp901
Rp902
(I3
S'|'
p903
NNNI48
I1
I0
tp904
bS'Contraceptive prevalence (% of women ages 15-49)'
p905
tp906
Rp907
(lp908
g1
(g41
S'\x00\x00\x00\x00\x15iBA'
p909
tp910
Rp911
ag1
(g41
S'\x00\x00\x00\x80\xac\xbaAA'
p912
tp913
Rp914
ag1
(g41
S'\x00\x00\x00\x00*=KA'
p915
tp916
Rp917
ag1
(g41
S'\x00\x00\x00\x80R#PA'
p918
tp919
Rp920
ag1
(g41
S'\x00\x00\x00\x80KJSA'
p921
tp922
Rp923
ag1
(g41
S'\x00\x00\x00@\xad\x8fUA'
p924
tp925
Rp926
ag1
(g41
S'\x00\x00\x00\x80\xc3\x02XA'
p927
tp928
Rp929
ag1
(g41
S'\x00\x00\x00\x005\xa9XA'
p930
tp931
Rp932
ag1
(g41
S"'1\x08\xec8\xae[A"
p933
tp934
Rp935
ag1
(g41
S"\xc9'\xbf\xf8\xe6#YA"
p936
tp937
Rp938
ag1
(g41
S'\xb7D.\x1b\xdc\x0b_A'
p939
tp940
Rp941
ag1
(g41
S'\x9d\xe6\xf0\xb6\x14\x9f`A'
p942
tp943
Rp944
ag1
(g41
S'N^\xa9("\xc8aA'
p945
tp946
Rp947
ag1
(g41
S'O\xda\xe5\xa0\x0cicA'
p948
tp949
Rp950
a(lp951
I2001
aI2002
aI2003
aI2004
aI2005
aI2006
aI2007
aI2008
aI2009
aI2010
aI2011
aI2012
aI2013
aI2014
atp952
a(g1
(g2
(S'S17'
p953
I0
I1
tp954
Rp955
(I3
S'|'
p956
NNNI17
I1
I0
tp957
bS'Brunei Darussalam'
p958
tp959
Rp960
g1
(g2
(S'S48'
p961
I0
I1
tp962
Rp963
(I3
S'|'
p964
NNNI48
I1
I0
tp965
bS'Contraceptive prevalence (% of women ages 15-49)'
p966
tp967
Rp968
(lp969
g1
(g41
S'\x00\x00\x00\x00\xe0\x0f\xf6@'
p970
tp971
Rp972
ag1
(g41
S'\x00\x00\x00\x00\x90\xe4\xf4@'
p973
tp974
Rp975
ag1
(g41
S'\x08\xac\x1cZ\xaeA\xf8@'
p976
tp977
Rp978
ag1
(g41
S'\xa1\xd7\x9f\x04\xa2\xa3\xf9@'
p979
tp980
Rp981
ag1
(g41
S'g\xa1\xf8\xc4\xe7\x8f\xfb@'
p982
tp983
Rp984
ag1
(g41
S'\xf2(2fR\xbd\xfd@'
p985
tp986
Rp987
a(lp988
I2009
aI2010
aI2011
aI2012
aI2013
aI2014
atp989
a(g1
(g2
(S'S8'
p990
I0
I1
tp991
Rp992
(I3
S'|'
p993
NNNI8
I1
I0
tp994
bS'Bulgaria'
p995
tp996
Rp997
g1
(g2
(S'S48'
p998
I0
I1
tp999
Rp1000
(I3
S'|'
p1001
NNNI48
I1
I0
tp1002
bS'Contraceptive prevalence (% of women ages 15-49)'
p1003
tp1004
Rp1005
(lp1006
g1
(g41
S'\x00\x00\x00\x00`\xe8\xff@'
p1007
tp1008
Rp1009
ag1
(g41
S'\x00\x00\x00\x00\xa8\xcf\x08A'
p1010
tp1011
Rp1012
ag1
(g41
S'\x00\x00\x00\x00\xe0\xa7\x00A'
p1013
tp1014
Rp1015
ag1
(g41
S'\x00\x00\x00\x00\x98h\x01A'
p1016
tp1017
Rp1018
ag1
(g41
S'\x0e-\xb2\x9d\x9ef\x02A'
p1019
tp1020
Rp1021
ag1
(g41
S'\t\x8a\x1f\x83\xea\xc7\x03A'
p1022
tp1023
Rp1024
ag1
(g41
S'\x1e\xe7\x91&\xf7W\x05A'
p1025
tp1026
Rp1027
a(lp1028
I2008
aI2009
aI2010
aI2011
aI2012
aI2013
aI2014
atp1029
a(g1
(g2
(S'S12'
p1030
I0
I1
tp1031
Rp1032
(I3
S'|'
p1033
NNNI12
I1
I0
tp1034
bS'Burkina Faso'
p1035
tp1036
Rp1037
g1
(g2
(S'S48'
p1038
I0
I1
tp1039
Rp1040
(I3
S'|'
p1041
NNNI48
I1
I0
tp1042
bS'Contraceptive prevalence (% of women ages 15-49)'
p1043
tp1044
Rp1045
(lp1046
(lp1047
tp1048
a(g1
(g2
(S'S7'
p1049
I0
I1
tp1050
Rp1051
(I3
S'|'
p1052
NNNI7
I1
I0
tp1053
bS'Burundi'
p1054
tp1055
Rp1056
g1
(g2
(S'S48'
p1057
I0
I1
tp1058
Rp1059
(I3
S'|'
p1060
NNNI48
I1
I0
tp1061
bS'Contraceptive prevalence (% of women ages 15-49)'
p1062
tp1063
Rp1064
(lp1065
(lp1066
tp1067
a(g1
(g2
(S'S10'
p1068
I0
I1
tp1069
Rp1070
(I3
S'|'
p1071
NNNI10
I1
I0
tp1072
bS'Cabo Verde'
p1073
tp1074
Rp1075
g1
(g2
(S'S48'
p1076
I0
I1
tp1077
Rp1078
(I3
S'|'
p1079
NNNI48
I1
I0
tp1080
bS'Contraceptive prevalence (% of women ages 15-49)'
p1081
tp1082
Rp1083
(lp1084
(lp1085
tp1086
a(g1
(g2
(S'S8'
p1087
I0
I1
tp1088
Rp1089
(I3
S'|'
p1090
NNNI8
I1
I0
tp1091
bS'Cambodia'
p1092
tp1093
Rp1094
g1
(g2
(S'S48'
p1095
I0
I1
tp1096
Rp1097
(I3
S'|'
p1098
NNNI48
I1
I0
tp1099
bS'Contraceptive prevalence (% of women ages 15-49)'
p1100
tp1101
Rp1102
(lp1103
g1
(g41
S'\x00\x00\x00\x00\xb8\xea\x0eA'
p1104
tp1105
Rp1106
ag1
(g41
S'\x00\x00\x00\x00\xb8\x96\x0fA'
p1107
tp1108
Rp1109
ag1
(g41
S'\x00\x00\x00\x00\xc8V\tA'
p1110
tp1111
Rp1112
ag1
(g41
S'\x00\x00\x00\x00p^\x0bA'
p1113
tp1114
Rp1115
ag1
(g41
S'-\xb2\x9d\xef\xcd\xed\x0cA'
p1116
tp1117
Rp1118
ag1
(g41
S'\xbdR\x96a=\x19\x0fA'
p1119
tp1120
Rp1121
ag1
(g41
S'\x16\xb5E\xbf\x16\xc7\x10A'
p1122
tp1123
Rp1124
a(lp1125
I2008
aI2009
aI2010
aI2011
aI2012
aI2013
aI2014
atp1126
a(g1
(g2
(S'S8'
p1127
I0
I1
tp1128
Rp1129
(I3
S'|'
p1130
NNNI8
I1
I0
tp1131
bS'Cameroon'
p1132
tp1133
Rp1134
g1
(g2
(S'S48'
p1135
I0
I1
tp1136
Rp1137
(I3
S'|'
p1138
NNNI48
I1
I0
tp1139
bS'Contraceptive prevalence (% of women ages 15-49)'
p1140
tp1141
Rp1142
(lp1143
g1
(g41
S'\x00\x00\x00\x00\x88\x92\nA'
p1144
tp1145
Rp1146
ag1
(g41
S'\x00\x00\x00\x00\xc0z\x10A'
p1147
tp1148
Rp1149
ag1
(g41
S'\x00\x00\x00\x00\x10\xf9\rA'
p1150
tp1151
Rp1152
ag1
(g41
S'\xf4\xfd\xd4x6f\x11A'
p1153
tp1154
Rp1155
ag1
(g41
S'\xe8\xa0KX\x1ad\x12A'
p1156
tp1157
Rp1158
ag1
(g41
S'`\xb3\xb7\xeb5\xc5\x13A'
p1159
tp1160
Rp1161
ag1
(g41
S'1\xfd1\xd8\x0bU\x15A'
p1162
tp1163
Rp1164
a(lp1165
I2008
aI2009
aI2010
aI2011
aI2012
aI2013
aI2014
atp1166
a(g1
(g2
(S'S6'
p1167
I0
I1
tp1168
Rp1169
(I3
S'|'
p1170
NNNI6
I1
I0
tp1171
bS'Canada'
p1172
tp1173
Rp1174
g1
(g2
(S'S48'
p1175
I0
I1
tp1176
Rp1177
(I3
S'|'
p1178
NNNI48
I1
I0
tp1179
bS'Contraceptive prevalence (% of women ages 15-49)'
p1180
tp1181
Rp1182
(lp1183
g1
(g41
S'\x00\x00\x00\x00\xa3VFA'
p1184
tp1185
Rp1186
ag1
(g41
S'\x00\x00\x00\x00J\rFA'
p1187
tp1188
Rp1189
ag1
(g41
S'\x00\x00\x00\x00\x97;IA'
p1190
tp1191
Rp1192
ag1
(g41
S'\x00\x00\x00\x00\xf0\xb3KA'
p1193
tp1194
Rp1195
ag1
(g41
S'\x00\x00\x00\x80A\xf4MA'
p1196
tp1197
Rp1198
ag1
(g41
S'\x00\x00\x00\x00\xb0\xc3OA'
p1199
tp1200
Rp1201
ag1
(g41
S'\x00\x00\x00\xc0\xac\x84PA'
p1202
tp1203
Rp1204
ag1
(g41
S'\x00\x00\x00\xc0y\xd6PA'
p1205
tp1206
Rp1207
ag1
(g41
S'\x00\x00\x00\xc0\x05\x02RA'
p1208
tp1209
Rp1210
ag1
(g41
S'Nb\x10\x08\xa8\xfaOA'
p1211
tp1212
Rp1213
ag1
(g41
S'\xf0\x88\n\x9c\x9blRA'
p1214
tp1215
Rp1216
ag1
(g41
S'\xbf\xfbY)\x15\xb9RA'
p1217
tp1218
Rp1219
ag1
(g41
S'>\x88\r\x96R;TA'
p1220
tp1221
Rp1222
ag1
(g41
S'\xd5\xa7CCB\x89TA'
p1223
tp1224
Rp1225
a(lp1226
I2001
aI2002
aI2003
aI2004
aI2005
aI2006
aI2007
aI2008
aI2009
aI2010
aI2011
aI2012
aI2013
aI2014
atp1227
a(g1
(g2
(S'S22'
p1228
I0
I1
tp1229
Rp1230
(I3
S'|'
p1231
NNNI22
I1
I0
tp1232
bS'Caribbean small states'
p1233
tp1234
Rp1235
g1
(g2
(S'S48'
p1236
I0
I1
tp1237
Rp1238
(I3
S'|'
p1239
NNNI48
I1
I0
tp1240
bS'Contraceptive prevalence (% of women ages 15-49)'
p1241
tp1242
Rp1243
(lp1244
g1
(g41
S'\x00\x00\x00@\xe5\xc0PA'
p1245
tp1246
Rp1247
ag1
(g41
S'\x00\x00\x00\x00Q\xd9PA'
p1248
tp1249
Rp1250
ag1
(g41
S'\x00\x00\x00\x00\xf3\xaaLA'
p1251
tp1252
Rp1253
ag1
(g41
S'X9\xb4(\x82\xfaLA'
p1254
tp1255
Rp1256
ag1
(g41
S'*T7\x13\xd0\x98NA'
p1257
tp1258
Rp1259
ag1
(g41
S'\xa3#Tj\xde`PA'
p1260
tp1261
Rp1262
ag1
(g41
S'x\xfcMK\xcf\xa9QA'
p1263
tp1264
Rp1265
a(lp1266
I2008
aI2009
aI2010
aI2011
aI2012
aI2013
aI2014
atp1267
a(g1
(g2
(S'S14'
p1268
I0
I1
tp1269
Rp1270
(I3
S'|'
p1271
NNNI14
I1
I0
tp1272
bS'Cayman Islands'
p1273
tp1274
Rp1275
g1
(g2
(S'S48'
p1276
I0
I1
tp1277
Rp1278
(I3
S'|'
p1279
NNNI48
I1
I0
tp1280
bS'Contraceptive prevalence (% of women ages 15-49)'
p1281
tp1282
Rp1283
(lp1284
g1
(g41
S'\x00\x00\x00\x00\x00H\x84@'
p1285
tp1286
Rp1287
ag1
(g41
S'\x00\x00\x00\x00\x80\xe4\xe1@'
p1288
tp1289
Rp1290
ag1
(g41
S'\x00\x00\x00\x00\xe0\x96\xe5@'
p1291
tp1292
Rp1293
ag1
(g41
S'\x00\x00\x00\x00 \xab\xe3@'
p1294
tp1295
Rp1296
ag1
(g41
S'\x00\x00\x00\x00 \xca\xe4@'
p1297
tp1298
Rp1299
ag1
(g41
S'\xcd\xcc\xcc\xccHY\xe6@'
p1300
tp1301
Rp1302
ag1
(g41
S'S\x96!\x0eD\x1d\xe8@'
p1303
tp1304
Rp1305
a(lp1306
I2008
aI2009
aI2010
aI2011
aI2012
aI2013
aI2014
atp1307
a(g1
(g2
(S'S24'
p1308
I0
I1
tp1309
Rp1310
(I3
S'|'
p1311
NNNI24
I1
I0
tp1312
bS'Central African Republic'
p1313
tp1314
Rp1315
g1
(g2
(S'S48'
p1316
I0
I1
tp1317
Rp1318
(I3
S'|'
p1319
NNNI48
I1
I0
tp1320
bS'Contraceptive prevalence (% of women ages 15-49)'
p1321
tp1322
Rp1323
(lp1324
(lp1325
tp1326
a(g1
(g2
(S'S30'
p1327
I0
I1
tp1328
Rp1329
(I3
S'|'
p1330
NNNI30
I1
I0
tp1331
bS'Central Europe and the Baltics'
p1332
tp1333
Rp1334
g1
(g2
(S'S48'
p1335
I0
I1
tp1336
Rp1337
(I3
S'|'
p1338
NNNI48
I1
I0
tp1339
bS'Contraceptive prevalence (% of women ages 15-49)'
p1340
tp1341
Rp1342
(lp1343
g1
(g41
S'\x00\x00\x00\x80\x18\xb2JA'
p1344
tp1345
Rp1346
ag1
(g41
S'\x00\x00\x00\x80\x11\x94LA'
p1347
tp1348
Rp1349
ag1
(g41
S'\x00\x00\x00\x00\xb0\x9cBA'
p1350
tp1351
Rp1352
ag1
(g41
S'q=\n\x17`\\GA'
p1353
tp1354
Rp1355
ag1
(g41
S'\xf5\xd6\xc0\xfeh\xf2LA'
p1356
tp1357
Rp1358
ag1
(g41
S'$\x97\xff<\xc3\\OA'
p1359
tp1360
Rp1361
ag1
(g41
S'p\xf2\xf6\xdd\xad\xe2PA'
p1362
tp1363
Rp1364
a(lp1365
I2008
aI2009
aI2010
aI2011
aI2012
aI2013
aI2014
atp1366
a(g1
(g2
(S'S4'
p1367
I0
I1
tp1368
Rp1369
(I3
S'|'
p1370
NNNI4
I1
I0
tp1371
bS'Chad'
p1372
tp1373
Rp1374
g1
(g2
(S'S48'
p1375
I0
I1
tp1376
Rp1377
(I3
S'|'
p1378
NNNI48
I1
I0
tp1379
bS'Contraceptive prevalence (% of women ages 15-49)'
p1380
tp1381
Rp1382
(lp1383
(lp1384
tp1385
a(g1
(g2
(S'S15'
p1386
I0
I1
tp1387
Rp1388
(I3
S'|'
p1389
NNNI15
I1
I0
tp1390
bS'Channel Islands'
p1391
tp1392
Rp1393
g1
(g2
(S'S48'
p1394
I0
I1
tp1395
Rp1396
(I3
S'|'
p1397
NNNI48
I1
I0
tp1398
bS'Contraceptive prevalence (% of women ages 15-49)'
p1399
tp1400
Rp1401
(lp1402
(lp1403
tp1404
a(g1
(g2
(S'S5'
p1405
I0
I1
tp1406
Rp1407
(I3
S'|'
p1408
NNNI5
I1
I0
tp1409
bS'Chile'
p1410
tp1411
Rp1412
g1
(g2
(S'S48'
p1413
I0
I1
tp1414
Rp1415
(I3
S'|'
p1416
NNNI48
I1
I0
tp1417
bS'Contraceptive prevalence (% of women ages 15-49)'
p1418
tp1419
Rp1420
(lp1421
g1
(g41
S'\x00\x00\x00\x00\x0b\x1f3A'
p1422
tp1423
Rp1424
ag1
(g41
S'\x00\x00\x00\x00\xe1|0A'
p1425
tp1426
Rp1427
ag1
(g41
S'\x00\x00\x00\x00\x08\xd21A'
p1428
tp1429
Rp1430
ag1
(g41
S'\x00\x00\x00\x00N\x133A'
p1431
tp1432
Rp1433
ag1
(g41
S'\x00\x00\x00\x000O9A'
p1434
tp1435
Rp1436
ag1
(g41
S'\x00\x00\x00\x00\xcc\x87;A'
p1437
tp1438
Rp1439
ag1
(g41
S'\x00\x00\x00\x80\xed9@A'
p1440
tp1441
Rp1442
ag1
(g41
S'\x00\x00\x00\x00\xb1\xcaDA'
p1443
tp1444
Rp1445
ag1
(g41
S'\x00\x00\x00\x80\xf4#HA'
p1446
tp1447
Rp1448
ag1
(g41
S'_\x07\xce\x19\xebTEA'
p1449
tp1450
Rp1451
ag1
(g41
S'\xf6.9I;3HA'
p1452
tp1453
Rp1454
ag1
(g41
S'D\x98\r\xa4\x10SJA'
p1455
tp1456
Rp1457
ag1
(g41
S'\xeb6(\xbd&\x83KA'
p1458
tp1459
Rp1460
ag1
(g41
S'`\xc0\x9a\xe1`\xdfLA'
p1461
tp1462
Rp1463
a(lp1464
I2001
aI2002
aI2003
aI2004
aI2005
aI2006
aI2007
aI2008
aI2009
aI2010
aI2011
aI2012
aI2013
aI2014
atp1465
a(g1
(g2
(S'S5'
p1466
I0
I1
tp1467
Rp1468
(I3
S'|'
p1469
NNNI5
I1
I0
tp1470
bS'China'
p1471
tp1472
Rp1473
g1
(g2
(S'S48'
p1474
I0
I1
tp1475
Rp1476
(I3
S'|'
p1477
NNNI48
I1
I0
tp1478
bS'Contraceptive prevalence (% of women ages 15-49)'
p1479
tp1480
Rp1481
(lp1482
g1
(g41
S'\x00\x00\x00\x00\xe2\x8c\x83A'
p1483
tp1484
Rp1485
ag1
(g41
S'\x00\x00\x00 \xbaS\x85A'
p1486
tp1487
Rp1488
ag1
(g41
S'\x00\x00\x00\x80s\x91\x8aA'
p1489
tp1490
Rp1491
ag1
(g41
S'\x00\x00\x00\x00\xf3\x83\x8dA'
p1492
tp1493
Rp1494
ag1
(g41
S'\x00\x00\x00\x10\xe1\xd0\x91A'
p1495
tp1496
Rp1497
ag1
(g41
S'\x00\x00\x00<S\x08\x90A'
p1498
tp1499
Rp1500
ag1
(g41
S'\x00\x00\x00\x1cl8\x94A'
p1501
tp1502
Rp1503
ag1
(g41
S'\x00\x00\x00\xc0\xda\xc0\x98A'
p1504
tp1505
Rp1506
ag1
(g41
S'\x00\x00\x00H\x89\xa4\x9bA'
p1507
tp1508
Rp1509
ag1
(g41
S'\xf91\xe6\xf6\x9e\xf0\x99A'
p1510
tp1511
Rp1512
ag1
(g41
S'iU\x1b,L\x10\x9fA'
p1513
tp1514
Rp1515
ag1
(g41
S'.\xc7+\xac\x1e>\xa1A'
p1516
tp1517
Rp1518
ag1
(g41
S'{\x9f\n8\x99\x14\xa3A'
p1519
tp1520
Rp1521
ag1
(g41
S'\xaf[\x9c\x94\x82\xc0\xa4A'
p1522
tp1523
Rp1524
a(lp1525
I2001
aI2002
aI2003
aI2004
aI2005
aI2006
aI2007
aI2008
aI2009
aI2010
aI2011
aI2012
aI2013
aI2014
atp1526
a(g1
(g2
(S'S8'
p1527
I0
I1
tp1528
Rp1529
(I3
S'|'
p1530
NNNI8
I1
I0
tp1531
bS'Colombia'
p1532
tp1533
Rp1534
g1
(g2
(S'S48'
p1535
I0
I1
tp1536
Rp1537
(I3
S'|'
p1538
NNNI48
I1
I0
tp1539
bS'Contraceptive prevalence (% of women ages 15-49)'
p1540
tp1541
Rp1542
(lp1543
g1
(g41
S'\x00\x00\x00\x00H((A'
p1544
tp1545
Rp1546
ag1
(g41
S'\x00\x00\x00\x00"\x9c!A'
p1547
tp1548
Rp1549
ag1
(g41
S'\x00\x00\x00\x00\xa0Q-A'
p1550
tp1551
Rp1552
ag1
(g41
S'\x00\x00\x00\x00\x06_.A'
p1553
tp1554
Rp1555
ag1
(g41
S'\x00\x00\x00\x00\x02\xe6,A'
p1556
tp1557
Rp1558
ag1
(g41
S'\x00\x00\x00\x00\x99\xdc2A'
p1559
tp1560
Rp1561
ag1
(g41
S'\x00\x00\x00\x00X\r7A'
p1562
tp1563
Rp1564
ag1
(g41
S'\x00\x00\x00\x00X\xb0?A'
p1565
tp1566
Rp1567
ag1
(g41
S'\x00\x00\x00\x00\xa4\x0c>A'
p1568
tp1569
Rp1570
ag1
(g41
S'\x7f\xd9=9Ub?A'
p1571
tp1572
Rp1573
ag1
(g41
S'\x00\x00\x00\x00\x05\xa5BA'
p1574
tp1575
Rp1576
ag1
(g41
S'\xfc\xa9\xf1\x92D\xb7CA'
p1577
tp1578
Rp1579
ag1
(g41
S'"\xfd\xf6\x9d\xa4dEA'
p1580
tp1581
Rp1582
ag1
(g41
S'\x86\x8c\xec>\xdd\xbcDA'
p1583
tp1584
Rp1585
a(lp1586
I2001
aI2002
aI2003
aI2004
aI2005
aI2006
aI2007
aI2008
aI2009
aI2010
aI2011
aI2012
aI2013
aI2014
atp1587
a(g1
(g2
(S'S7'
p1588
I0
I1
tp1589
Rp1590
(I3
S'|'
p1591
NNNI7
I1
I0
tp1592
bS'Comoros'
p1593
tp1594
Rp1595
g1
(g2
(S'S48'
p1596
I0
I1
tp1597
Rp1598
(I3
S'|'
p1599
NNNI48
I1
I0
tp1600
bS'Contraceptive prevalence (% of women ages 15-49)'
p1601
tp1602
Rp1603
(lp1604
(lp1605
tp1606
a(g1
(g2
(S'S10'
p1607
I0
I1
tp1608
Rp1609
(I3
S'|'
p1610
NNNI10
I1
I0
tp1611
bS'Costa Rica'
p1612
tp1613
Rp1614
g1
(g2
(S'S48'
p1615
I0
I1
tp1616
Rp1617
(I3
S'|'
p1618
NNNI48
I1
I0
tp1619
bS'Contraceptive prevalence (% of women ages 15-49)'
p1620
tp1621
Rp1622
(lp1623
g1
(g41
S'\x00\x00\x00\x00|\x80!A'
p1624
tp1625
Rp1626
ag1
(g41
S'\x00\x00\x00\x00\xe24!A'
p1627
tp1628
Rp1629
ag1
(g41
S'\x00\x00\x00\x00\x94c"A'
p1630
tp1631
Rp1632
ag1
(g41
S'\x00\x00\x00\x00\x96l$A'
p1633
tp1634
Rp1635
ag1
(g41
S'\x00\x00\x00\x00\x10g&A'
p1636
tp1637
Rp1638
ag1
(g41
S'\x00\x00\x00\x00\x88\x98&A'
p1639
tp1640
Rp1641
ag1
(g41
S'\x00\x00\x00\x00"v)A'
p1642
tp1643
Rp1644
ag1
(g41
S'\x00\x00\x00\x00\xda\xcd-A'
p1645
tp1646
Rp1647
ag1
(g41
S'\x00\x00\x00\x00V\xab.A'
p1648
tp1649
Rp1650
ag1
(g41
S'\x00\x00\x00\x00N\xb9*A'
p1651
tp1652
Rp1653
ag1
(g41
S'\x00\x00\x00\x00\xd6\xed.A'
p1654
tp1655
Rp1656
ag1
(g41
S'\xc9v\xbe\x7f<\xd22A'
p1657
tp1658
Rp1659
ag1
(g41
S'\xb1\xbf\xec\xa2\x0eJ4A'
p1660
tp1661
Rp1662
ag1
(g41
S'\xd8\xed\xf5\xb4\xc0\xb1<A'
p1663
tp1664
Rp1665
a(lp1666
I2001
aI2002
aI2003
aI2004
aI2005
aI2006
aI2007
aI2008
aI2009
aI2010
aI2011
aI2012
aI2013
aI2014
atp1667
a(g1
(g2
(S'S13'
p1668
I0
I1
tp1669
Rp1670
(I3
S'|'
p1671
NNNI13
I1
I0
tp1672
bS"Cote d'Ivoire"
p1673
tp1674
Rp1675
g1
(g2
(S'S48'
p1676
I0
I1
tp1677
Rp1678
(I3
S'|'
p1679
NNNI48
I1
I0
tp1680
bS'Contraceptive prevalence (% of women ages 15-49)'
p1681
tp1682
Rp1683
(lp1684
g1
(g41
S'\x00\x00\x00\x00\xd8\x83\x1aA'
p1685
tp1686
Rp1687
ag1
(g41
S'\x00\x00\x00\x00\xca\x98 A'
p1688
tp1689
Rp1690
ag1
(g41
S'\x00\x00\x00\x00\xe8\xab!A'
p1691
tp1692
Rp1693
ag1
(g41
S'\x00\x00\x00\x00\x84\xb1"A'
p1694
tp1695
Rp1696
ag1
(g41
S'\x00\x00\x00\x00`r$A'
p1697
tp1698
Rp1699
ag1
(g41
S'\x00\x00\x00\x00\xe0\xaa%A'
p1700
tp1701
Rp1702
ag1
(g41
S'\x00\x00\x00\x00\xc4\x03"A'
p1703
tp1704
Rp1705
ag1
(g41
S'\x00\x00\x00\x002\xc7%A'
p1706
tp1707
Rp1708
ag1
(g41
S'\x00\x00\x00\x00J\xa9$A'
p1709
tp1710
Rp1711
ag1
(g41
S'\x00\x00\x00\x00\xe4\x8b"A'
p1712
tp1713
Rp1714
ag1
(g41
S'\x85\xebQ8\x85\x9a#A'
p1715
tp1716
Rp1717
ag1
(g41
S'\xc9v\xbe\xcf\xe8\x12%A'
p1718
tp1719
Rp1720
ag1
(g41
S'\x14\xe7\xa8u\x1b\xbd&A'
p1721
tp1722
Rp1723
a(lp1724
I2001
aI2002
aI2003
aI2004
aI2005
aI2006
aI2008
aI2009
aI2010
aI2011
aI2012
aI2013
aI2014
atp1725
a(g1
(g2
(S'S7'
p1726
I0
I1
tp1727
Rp1728
(I3
S'|'
p1729
NNNI7
I1
I0
tp1730
bS'Croatia'
p1731
tp1732
Rp1733
g1
(g2
(S'S48'
p1734
I0
I1
tp1735
Rp1736
(I3
S'|'
p1737
NNNI48
I1
I0
tp1738
bS'Contraceptive prevalence (% of women ages 15-49)'
p1739
tp1740
Rp1741
(lp1742
g1
(g41
S'\x00\x00\x00\x00\x80\xa4\xcb@'
p1743
tp1744
Rp1745
ag1
(g41
S'\x00\x00\x00\x00\x80\xca\xd1@'
p1746
tp1747
Rp1748
ag1
(g41
S'\x00\x00\x00\x00@K\xd7@'
p1749
tp1750
Rp1751
ag1
(g41
S'\x00\x00\x00\x00\xc0\xaa\xe4@'
p1752
tp1753
Rp1754
ag1
(g41
S'\x00\x00\x00\x00`\xb0\xf2@'
p1755
tp1756
Rp1757
ag1
(g41
S'\x00\x00\x00\x00\xf0\x00\xf7@'
p1758
tp1759
Rp1760
ag1
(g41
S'\x00\x00\x00\x00\xa0\x90\xfb@'
p1761
tp1762
Rp1763
ag1
(g41
S'\x00\x00\x00\x00\x80\xb4\x01A'
p1764
tp1765
Rp1766
ag1
(g41
S'\x00\x00\x00\x00\xc8\x99\x04A'
p1767
tp1768
Rp1769
ag1
(g41
S'\x00\x00\x00\x00@\xeb\xff@'
p1770
tp1771
Rp1772
ag1
(g41
S'\x00\x00\x00\x00\xc0\xba\x00A'
p1773
tp1774
Rp1775
ag1
(g41
S'\xcf\xf7S\xe3\xdd\xae\x01A'
p1776
tp1777
Rp1778
ag1
(g41
S'\xcb\x10\xc7\xbaa\x02\x03A'
p1779
tp1780
Rp1781
ag1
(g41
S'o?*o\xd3\x82\x04A'
p1782
tp1783
Rp1784
a(lp1785
I2001
aI2002
aI2003
aI2004
aI2005
aI2006
aI2007
aI2008
aI2009
aI2010
aI2011
aI2012
aI2013
aI2014
atp1786
a(g1
(g2
(S'S4'
p1787
I0
I1
tp1788
Rp1789
(I3
S'|'
p1790
NNNI4
I1
I0
tp1791
bS'Cuba'
p1792
tp1793
Rp1794
g1
(g2
(S'S48'
p1795
I0
I1
tp1796
Rp1797
(I3
S'|'
p1798
NNNI48
I1
I0
tp1799
bS'Contraceptive prevalence (% of women ages 15-49)'
p1800
tp1801
Rp1802
(lp1803
g1
(g41
S'\x00\x00\x00\x00\xc4\x85\x13A'
p1804
tp1805
Rp1806
ag1
(g41
S'\x00\x00\x00\x00`x\x13A'
p1807
tp1808
Rp1809
ag1
(g41
S'ffff\xca\xb4\x11A'
p1810
tp1811
Rp1812
ag1
(g41
S'\x00\x00\x00\x00\xd0\xdf\x0bA'
p1813
tp1814
Rp1815
ag1
(g41
S'\x00\x00\x00\x00\xa8\x1f\x0eA'
p1816
tp1817
Rp1818
ag1
(g41
S'fff\xe6\x031\x10A'
p1819
tp1820
Rp1821
ag1
(g41
S"TR'\xb0xx\x11A"
p1822
tp1823
Rp1824
a(lp1825
I2008
aI2009
aI2010
aI2011
aI2012
aI2013
aI2014
atp1826
a(g1
(g2
(S'S7'
p1827
I0
I1
tp1828
Rp1829
(I3
S'|'
p1830
NNNI7
I1
I0
tp1831
bS'Curacao'
p1832
tp1833
Rp1834
g1
(g2
(S'S48'
p1835
I0
I1
tp1836
Rp1837
(I3
S'|'
p1838
NNNI48
I1
I0
tp1839
bS'Contraceptive prevalence (% of women ages 15-49)'
p1840
tp1841
Rp1842
(lp1843
(lp1844
tp1845
a(g1
(g2
(S'S6'
p1846
I0
I1
tp1847
Rp1848
(I3
S'|'
p1849
NNNI6
I1
I0
tp1850
bS'Cyprus'
p1851
tp1852
Rp1853
g1
(g2
(S'S48'
p1854
I0
I1
tp1855
Rp1856
(I3
S'|'
p1857
NNNI48
I1
I0
tp1858
bS'Contraceptive prevalence (% of women ages 15-49)'
p1859
tp1860
Rp1861
(lp1862
g1
(g41
S'\x00\x00\x00\x004\x03\x17A'
p1863
tp1864
Rp1865
ag1
(g41
S'\x00\x00\x00\x00(s\x19A'
p1866
tp1867
Rp1868
ag1
(g41
S'\x00\x00\x00\x00\xe4\x99\x15A'
p1869
tp1870
Rp1871
ag1
(g41
S'\x00\x00\x00\x00\xb4R\x15A'
p1872
tp1873
Rp1874
ag1
(g41
S'\x00\x00\x00\x000\x03\x16A'
p1875
tp1876
Rp1877
ag1
(g41
S'ffff\xd9\xbd\x12A'
p1878
tp1879
Rp1880
ag1
(g41
S']\xfeC\x1aM\xec\x10A'
p1881
tp1882
Rp1883
a(lp1884
I2008
aI2009
aI2010
aI2011
aI2012
aI2013
aI2014
atp1885
a(g1
(g2
(S'S14'
p1886
I0
I1
tp1887
Rp1888
(I3
S'|'
p1889
NNNI14
I1
I0
tp1890
bS'Czech Republic'
p1891
tp1892
Rp1893
g1
(g2
(S'S48'
p1894
I0
I1
tp1895
Rp1896
(I3
S'|'
p1897
NNNI48
I1
I0
tp1898
bS'Contraceptive prevalence (% of women ages 15-49)'
p1899
tp1900
Rp1901
(lp1902
(lp1903
tp1904
a(g1
(g2
(S'S7'
p1905
I0
I1
tp1906
Rp1907
(I3
S'|'
p1908
NNNI7
I1
I0
tp1909
bS'Denmark'
p1910
tp1911
Rp1912
g1
(g2
(S'S48'
p1913
I0
I1
tp1914
Rp1915
(I3
S'|'
p1916
NNNI48
I1
I0
tp1917
bS'Contraceptive prevalence (% of women ages 15-49)'
p1918
tp1919
Rp1920
(lp1921
g1
(g41
S'\x00\x00\x00\x00\xa8Z!A'
p1922
tp1923
Rp1924
ag1
(g41
S'\x00\x00\x00\x00\xa8\xea\x1bA'
p1925
tp1926
Rp1927
ag1
(g41
S'\x00\x00\x00\x00H\xec!A'
p1928
tp1929
Rp1930
ag1
(g41
S'\x00\x00\x00\x002\x1f+A'
p1931
tp1932
Rp1933
ag1
(g41
S'\x00\x00\x00\x00\xdf\x852A'
p1934
tp1935
Rp1936
ag1
(g41
S'\x00\x00\x00\x00P\xe4+A'
p1937
tp1938
Rp1939
ag1
(g41
S'\x00\x00\x00\x006\xbe$A'
p1940
tp1941
Rp1942
ag1
(g41
S"\x00\x00\x00\x00\x9a\xa7'A"
p1943
tp1944
Rp1945
ag1
(g41
S'\x00\x00\x00\x00\x94\x9a&A'
p1946
tp1947
Rp1948
ag1
(g41
S'\x00\x00\x00\x00\xd4\xf7"A'
p1949
tp1950
Rp1951
ag1
(g41
S'\x00\x00\x00\x006\xa4%A'
p1952
tp1953
Rp1954
ag1
(g41
S'\x00\x00\x00\x00\x16\xfb&A'
p1955
tp1956
Rp1957
ag1
(g41
S'\x00\x00\x00@Q\xb4(A'
p1958
tp1959
Rp1960
ag1
(g41
S'\x9e\xef\xa7>\xf0\xa7*A'
p1961
tp1962
Rp1963
a(lp1964
I2001
aI2002
aI2003
aI2004
aI2005
aI2006
aI2007
aI2008
aI2009
aI2010
aI2011
aI2012
aI2013
aI2014
atp1965
a(g1
(g2
(S'S8'
p1966
I0
I1
tp1967
Rp1968
(I3
S'|'
p1969
NNNI8
I1
I0
tp1970
bS'Djibouti'
p1971
tp1972
Rp1973
g1
(g2
(S'S48'
p1974
I0
I1
tp1975
Rp1976
(I3
S'|'
p1977
NNNI48
I1
I0
tp1978
bS'Contraceptive prevalence (% of women ages 15-49)'
p1979
tp1980
Rp1981
(lp1982
g1
(g41
S'\x00\x00\x00\x00\xd8\xff\x11A'
p1983
tp1984
Rp1985
ag1
(g41
S'\x00\x00\x00\x00\xb8\xc1\x15A'
p1986
tp1987
Rp1988
ag1
(g41
S'\x00\x00\x00\x000\xb5\x1fA'
p1989
tp1990
Rp1991
ag1
(g41
S'\x00\x00\x00\x00\x80O"A'
p1992
tp1993
Rp1994
ag1
(g41
S'\x00\x00\x00\x00\xb0Z#A'
p1995
tp1996
Rp1997
ag1
(g41
S'\x00\x00\x00\x00J\xce$A'
p1998
tp1999
Rp2000
ag1
(g41
S'\xecQ\xb8\xde\x10s&A'
p2001
tp2002
Rp2003
a(lp2004
I2008
aI2009
aI2010
aI2011
aI2012
aI2013
aI2014
atp2005
a(g1
(g2
(S'S8'
p2006
I0
I1
tp2007
Rp2008
(I3
S'|'
p2009
NNNI8
I1
I0
tp2010
bS'Dominica'
p2011
tp2012
Rp2013
g1
(g2
(S'S48'
p2014
I0
I1
tp2015
Rp2016
(I3
S'|'
p2017
NNNI48
I1
I0
tp2018
bS'Contraceptive prevalence (% of women ages 15-49)'
p2019
tp2020
Rp2021
(lp2022
(lp2023
tp2024
a(g1
(g2
(S'S18'
p2025
I0
I1
tp2026
Rp2027
(I3
S'|'
p2028
NNNI18
I1
I0
tp2029
bS'Dominican Republic'
p2030
tp2031
Rp2032
g1
(g2
(S'S48'
p2033
I0
I1
tp2034
Rp2035
(I3
S'|'
p2036
NNNI48
I1
I0
tp2037
bS'Contraceptive prevalence (% of women ages 15-49)'
p2038
tp2039
Rp2040
(lp2041
g1
(g41
S'\x00\x00\x00\x00\x9eI!A'
p2042
tp2043
Rp2044
ag1
(g41
S'\x00\x00\x00\x00L\xc6\x1dA'
p2045
tp2046
Rp2047
ag1
(g41
S'\x00\x00\x00\x00\xd4\x89 A'
p2048
tp2049
Rp2050
ag1
(g41
S'\x00\x00\x00\x00(V\x1dA'
p2051
tp2052
Rp2053
ag1
(g41
S'\x00\x00\x00\x00\xcae A'
p2054
tp2055
Rp2056
ag1
(g41
S'\x00\x00\x00\x00\x9e<"A'
p2057
tp2058
Rp2059
ag1
(g41
S'\x00\x00\x00\x00\x92\xf8*A'
p2060
tp2061
Rp2062
ag1
(g41
S"\x00\x00\x00\x00'_1A"
p2063
tp2064
Rp2065
ag1
(g41
S'xz\xa5\x8ckG3A'
p2066
tp2067
Rp2068
ag1
(g41
S'\xf7\xf99\x8b\x17\x195A'
p2069
tp2070
Rp2071
ag1
(g41
S'a\x87R/\xf4L6A'
p2072
tp2073
Rp2074
ag1
(g41
S"\xb2p\x067\xc7'8A"
p2075
tp2076
Rp2077
ag1
(g41
S'\xe1o\xe6\xf1K\x10:A'
p2078
tp2079
Rp2080
a(lp2081
I2001
aI2002
aI2003
aI2004
aI2005
aI2007
aI2008
aI2009
aI2010
aI2011
aI2012
aI2013
aI2014
atp2082
a(g1
(g2
(S'S39'
p2083
I0
I1
tp2084
Rp2085
(I3
S'|'
p2086
NNNI39
I1
I0
tp2087
bS'East Asia & Pacific (all income levels)'
p2088
tp2089
Rp2090
g1
(g2
(S'S48'
p2091
I0
I1
tp2092
Rp2093
(I3
S'|'
p2094
NNNI48
I1
I0
tp2095
bS'Contraceptive prevalence (% of women ages 15-49)'
p2096
tp2097
Rp2098
(lp2099
g1
(g41
S'\x00\x00\x00\xc4\xf1\x81\x9aA'
p2100
tp2101
Rp2102
ag1
(g41
S'\x00\x00\x00\x0c\xe9\xa4\x9bA'
p2103
tp2104
Rp2105
ag1
(g41
S'\x00\x00\x00\xd8\x87c\xa0A'
p2106
tp2107
Rp2108
ag1
(g41
S'\x00\x00\x00,\xad\x18\xa2A'
p2109
tp2110
Rp2111
ag1
(g41
S'\x00\x00\x00\xba3\xc4\xa4A'
p2112
tp2113
Rp2114
ag1
(g41
S'\x00\x00\x00`\xb4\x19\xa7A'
p2115
tp2116
Rp2117
ag1
(g41
S'\x00\x00\x00P\x8c\xf5\xa9A'
p2118
tp2119
Rp2120
ag1
(g41
S'\x00\x00\x00\xb6y\x13\xaeA'
p2121
tp2122
Rp2123
ag1
(g41
S'33\xb3#_\r\xb0A'
p2124
tp2125
Rp2126
ag1
(g41
S'\xd4\xd4\xd2\xc4j\x86\xadA'
p2127
tp2128
Rp2129
ag1
(g41
S']lFk\xb0\x1d\xb1A'
p2130
tp2131
Rp2132
ag1
(g41
S'r\x15g\xbf\xfd\xac\xb2A'
p2133
tp2134
Rp2135
ag1
(g41
S'\x12\xc1\x94V\x1b\xb2\xb3A'
p2136
tp2137
Rp2138
ag1
(g41
S"\xdcH!'\xd5\x0e\xb5A"
p2139
tp2140
Rp2141
a(lp2142
I2001
aI2002
aI2003
aI2004
aI2005
aI2006
aI2007
aI2008
aI2009
aI2010
aI2011
aI2012
aI2013
aI2014
atp2143
a(g1
(g2
(S'S37'
p2144
I0
I1
tp2145
Rp2146
(I3
S'|'
p2147
NNNI37
I1
I0
tp2148
bS'East Asia & Pacific (developing only)'
p2149
tp2150
Rp2151
g1
(g2
(S'S48'
p2152
I0
I1
tp2153
Rp2154
(I3
S'|'
p2155
NNNI48
I1
I0
tp2156
bS'Contraceptive prevalence (% of women ages 15-49)'
p2157
tp2158
Rp2159
(lp2160
g1
(g41
S'\x00\x00\x00\x98\x89\x1a\x8bA'
p2161
tp2162
Rp2163
ag1
(g41
S'\x00\x00\x00\xc04\xdc\x8dA'
p2164
tp2165
Rp2166
ag1
(g41
S'\x00\x00\x00\xc8\xee\x92\x92A'
p2167
tp2168
Rp2169
ag1
(g41
S'\x00\x00\x00\x98p\xb7\x94A'
p2170
tp2171
Rp2172
ag1
(g41
S'\x00\x00\x00 "j\x98A'
p2173
tp2174
Rp2175
ag1
(g41
S'\x00\x00\x00\x00\x90\xf1\x96A'
p2176
tp2177
Rp2178
ag1
(g41
S'\x00\x00\x00d\x99^\x9bA'
p2179
tp2180
Rp2181
ag1
(g41
S'\x00\x00\x00\xf6\xfd\xc3\xa0A'
p2182
tp2183
Rp2184
ag1
(g41
S'\xc0\xec\x9eZ]\x90\xa2A'
p2185
tp2186
Rp2187
ag1
(g41
S's\xbe\x88\x13\x0e\x9d\xa1A'
p2188
tp2189
Rp2190
ag1
(g41
S'\xcb0f\xbe\x9f\xe6\xa4A'
p2191
tp2192
Rp2193
ag1
(g41
S'\xb8\x1d\xeaM\x02\x1d\xa7A'
p2194
tp2195
Rp2196
ag1
(g41
S'\x97\xfee$>\xbc\xa8A'
p2197
tp2198
Rp2199
ag1
(g41
S'Q\xa4\x1b\x88\tH\xabA'
p2200
tp2201
Rp2202
a(lp2203
I2001
aI2002
aI2003
aI2004
aI2005
aI2006
aI2007
aI2008
aI2009
aI2010
aI2011
aI2012
aI2013
aI2014
atp2204
a(g1
(g2
(S'S7'
p2205
I0
I1
tp2206
Rp2207
(I3
S'|'
p2208
NNNI7
I1
I0
tp2209
bS'Ecuador'
p2210
tp2211
Rp2212
g1
(g2
(S'S48'
p2213
I0
I1
tp2214
Rp2215
(I3
S'|'
p2216
NNNI48
I1
I0
tp2217
bS'Contraceptive prevalence (% of women ages 15-49)'
p2218
tp2219
Rp2220
(lp2221
g1
(g41
S'\x00\x00\x00\x00`F\x19A'
p2222
tp2223
Rp2224
ag1
(g41
S'\x00\x00\x00\x00LJ\x19A'
p2225
tp2226
Rp2227
ag1
(g41
S'\x00\x00\x00\x00\xd8\x8b\x1eA'
p2228
tp2229
Rp2230
ag1
(g41
S'\x00\x00\x00\x008\xd5\x1fA'
p2231
tp2232
Rp2233
ag1
(g41
S'\x00\x00\x00\x00F:!A'
p2234
tp2235
Rp2236
ag1
(g41
S'\x00\x00\x00\x00$O#A'
p2237
tp2238
Rp2239
ag1
(g41
S'\x00\x00\x00\x00\xdez$A'
p2240
tp2241
Rp2242
ag1
(g41
S'\x00\x00\x00\x00*\x98$A'
p2243
tp2244
Rp2245
ag1
(g41
S'\x00\x00\x00\x00\xdex$A'
p2246
tp2247
Rp2248
ag1
(g41
S'\x00\x00\x00\x00~\x8b.A'
p2249
tp2250
Rp2251
ag1
(g41
S'\x00\x00\x00\x00\xd9\xa42A'
p2252
tp2253
Rp2254
ag1
(g41
S'\x00\x00\x00\x80P\x7f0A'
p2255
tp2256
Rp2257
ag1
(g41
S'fffVw\x0b1A'
p2258
tp2259
Rp2260
ag1
(g41
S'\xee\xeb\xc0\x13.d2A'
p2261
tp2262
Rp2263
a(lp2264
I2001
aI2002
aI2003
aI2004
aI2005
aI2006
aI2007
aI2008
aI2009
aI2010
aI2011
aI2012
aI2013
aI2014
atp2265
a(g1
(g2
(S'S11'
p2266
I0
I1
tp2267
Rp2268
(I3
S'|'
p2269
NNNI11
I1
I0
tp2270
bS'El Salvador'
p2271
tp2272
Rp2273
g1
(g2
(S'S48'
p2274
I0
I1
tp2275
Rp2276
(I3
S'|'
p2277
NNNI48
I1
I0
tp2278
bS'Contraceptive prevalence (% of women ages 15-49)'
p2279
tp2280
Rp2281
(lp2282
g1
(g41
S'\x00\x00\x00\x00P\xa2\x01A'
p2283
tp2284
Rp2285
ag1
(g41
S'\x00\x00\x00\x00\x18\x15\x03A'
p2286
tp2287
Rp2288
ag1
(g41
S'\x00\x00\x00\x00\x10\xda\xfe@'
p2289
tp2290
Rp2291
ag1
(g41
S'\x00\x00\x00\x00p\xcb\x01A'
p2292
tp2293
Rp2294
ag1
(g41
S'\x00\x00\x00\x00\x80\xad\x03A'
p2295
tp2296
Rp2297
ag1
(g41
S'\x00\x00\x00\x00@\xa7\x03A'
p2298
tp2299
Rp2300
ag1
(g41
S'\x00\x00\x00\x00\xc0\x0b\x06A'
p2301
tp2302
Rp2303
a(lp2304
I2008
aI2009
aI2010
aI2011
aI2012
aI2013
aI2014
atp2305
a(g1
(g2
(S'S17'
p2306
I0
I1
tp2307
Rp2308
(I3
S'|'
p2309
NNNI17
I1
I0
tp2310
bS'Equatorial Guinea'
p2311
tp2312
Rp2313
g1
(g2
(S'S48'
p2314
I0
I1
tp2315
Rp2316
(I3
S'|'
p2317
NNNI48
I1
I0
tp2318
bS'Contraceptive prevalence (% of women ages 15-49)'
p2319
tp2320
Rp2321
(lp2322
(lp2323
tp2324
a(g1
(g2
(S'S7'
p2325
I0
I1
tp2326
Rp2327
(I3
S'|'
p2328
NNNI7
I1
I0
tp2329
bS'Eritrea'
p2330
tp2331
Rp2332
g1
(g2
(S'S48'
p2333
I0
I1
tp2334
Rp2335
(I3
S'|'
p2336
NNNI48
I1
I0
tp2337
bS'Contraceptive prevalence (% of women ages 15-49)'
p2338
tp2339
Rp2340
(lp2341
(lp2342
tp2343
a(g1
(g2
(S'S7'
p2344
I0
I1
tp2345
Rp2346
(I3
S'|'
p2347
NNNI7
I1
I0
tp2348
bS'Estonia'
p2349
tp2350
Rp2351
g1
(g2
(S'S48'
p2352
I0
I1
tp2353
Rp2354
(I3
S'|'
p2355
NNNI48
I1
I0
tp2356
bS'Contraceptive prevalence (% of women ages 15-49)'
p2357
tp2358
Rp2359
(lp2360
g1
(g41
S'\x00\x00\x00\x00x\x15\x06A'
p2361
tp2362
Rp2363
ag1
(g41
S'\x00\x00\x00\x00\xf8\x15\x06A'
p2364
tp2365
Rp2366
ag1
(g41
S'\x00\x00\x00\x00\xb0\xf7\xff@'
p2367
tp2368
Rp2369
ag1
(g41
S'\x00\x00\x00\x00\x08\x8d\x02A'
p2370
tp2371
Rp2372
ag1
(g41
S'\x00\x00\x00\x00\xa8"\x08A'
p2373
tp2374
Rp2375
ag1
(g41
S'\x00\x00\x00\x00pZ\x05A'
p2376
tp2377
Rp2378
ag1
(g41
S'\x1dZd;I\n\x07A'
p2379
tp2380
Rp2381
a(lp2382
I2008
aI2009
aI2010
aI2011
aI2012
aI2013
aI2014
atp2383
a(g1
(g2
(S'S8'
p2384
I0
I1
tp2385
Rp2386
(I3
S'|'
p2387
NNNI8
I1
I0
tp2388
bS'Ethiopia'
p2389
tp2390
Rp2391
g1
(g2
(S'S48'
p2392
I0
I1
tp2393
Rp2394
(I3
S'|'
p2395
NNNI48
I1
I0
tp2396
bS'Contraceptive prevalence (% of women ages 15-49)'
p2397
tp2398
Rp2399
(lp2400
(lp2401
tp2402
a(g1
(g2
(S'S9'
p2403
I0
I1
tp2404
Rp2405
(I3
S'|'
p2406
NNNI9
I1
I0
tp2407
bS'Euro area'
p2408
tp2409
Rp2410
g1
(g2
(S'S48'
p2411
I0
I1
tp2412
Rp2413
(I3
S'|'
p2414
NNNI48
I1
I0
tp2415
bS'Contraceptive prevalence (% of women ages 15-49)'
p2416
tp2417
Rp2418
(lp2419
g1
(g41
S'\x00\x00\x00X\x1d\xe0\x82A'
p2420
tp2421
Rp2422
ag1
(g41
S'\x00\x00\x00\x90"\x97\x83A'
p2423
tp2424
Rp2425
ag1
(g41
S'\x00\x00\x00\xd01\xa2\x85A'
p2426
tp2427
Rp2428
ag1
(g41
S'\x00\x00\x00\xb0\r\x9a\x87A'
p2429
tp2430
Rp2431
ag1
(g41
S'\x00\x00\x00\xc8\x86\xec\x8aA'
p2432
tp2433
Rp2434
ag1
(g41
S'\x00\x00\x00P\xcf\xc5\x8cA'
p2435
tp2436
Rp2437
ag1
(g41
S'\x00\x00\x00X\xce\xce\x8eA'
p2438
tp2439
Rp2440
ag1
(g41
S'\x00\x00\x00\xbcbN\x92A'
p2441
tp2442
Rp2443
ag1
(g41
S'\xe7\x1d\xa7\xda\x1ep\x92A'
p2444
tp2445
Rp2446
ag1
(g41
S'\xff\xfb\xcd.g\x00\x90A'
p2447
tp2448
Rp2449
ag1
(g41
S'J\x8a\xe9\xdb\xf5\xb4\x91A'
p2450
tp2451
Rp2452
ag1
(g41
S'\x16;Pr\xc5S\x93A'
p2453
tp2454
Rp2455
ag1
(g41
S'\xb9\x01\x1a=3Y\x94A'
p2456
tp2457
Rp2458
ag1
(g41
S'\xc5,\x15\xb5\xee\xe5\x94A'
p2459
tp2460
Rp2461
a(lp2462
I2001
aI2002
aI2003
aI2004
aI2005
aI2006
aI2007
aI2008
aI2009
aI2010
aI2011
aI2012
aI2013
aI2014
atp2463
a(g1
(g2
(S'S41'
p2464
I0
I1
tp2465
Rp2466
(I3
S'|'
p2467
NNNI41
I1
I0
tp2468
bS'Europe & Central Asia (all income levels)'
p2469
tp2470
Rp2471
g1
(g2
(S'S48'
p2472
I0
I1
tp2473
Rp2474
(I3
S'|'
p2475
NNNI48
I1
I0
tp2476
bS'Contraceptive prevalence (% of women ages 15-49)'
p2477
tp2478
Rp2479
(lp2480
g1
(g41
S'\x00\x00\x00\xb0z\t\x87A'
p2481
tp2482
Rp2483
ag1
(g41
S'\x00\x00\x00\xd8\x1a(\x88A'
p2484
tp2485
Rp2486
ag1
(g41
S'\x00\x00\x00\x08\xa1\x86\x8aA'
p2487
tp2488
Rp2489
ag1
(g41
S'\x00\x00\x00H\x86\xc3\x8cA'
p2490
tp2491
Rp2492
ag1
(g41
S'\x00\x00\x00\x80\x19\xf9\x90A'
p2493
tp2494
Rp2495
ag1
(g41
S'\x00\x00\x00X]\x12\x92A'
p2496
tp2497
Rp2498
ag1
(g41
S'\x00\x00\x00<\xa4a\x93A'
p2499
tp2500
Rp2501
ag1
(g41
S'\x00\x00\x00\xb0\x82A\x97A'
p2502
tp2503
Rp2504
ag1
(g41
S'@\x13a\xa94}\x97A'
p2505
tp2506
Rp2507
ag1
(g41
S'a\x92mQ\xb8\x11\x94A'
p2508
tp2509
Rp2510
ag1
(g41
S'\xef\xacm^\x93\x97\x96A'
p2511
tp2512
Rp2513
ag1
(g41
S'\x9a\xb0\xbd\xdc\x00\xbc\x98A'
p2514
tp2515
Rp2516
ag1
(g41
S'm\x90\xa9\xea\x07\xed\x99A'
p2517
tp2518
Rp2519
ag1
(g41
S'\xcd\x8fO\xbf\x8b\xd1\x9aA'
p2520
tp2521
Rp2522
a(lp2523
I2001
aI2002
aI2003
aI2004
aI2005
aI2006
aI2007
aI2008
aI2009
aI2010
aI2011
aI2012
aI2013
aI2014
atp2524
a(g1
(g2
(S'S39'
p2525
I0
I1
tp2526
Rp2527
(I3
S'|'
p2528
NNNI39
I1
I0
tp2529
bS'Europe & Central Asia (developing only)'
p2530
tp2531
Rp2532
g1
(g2
(S'S48'
p2533
I0
I1
tp2534
Rp2535
(I3
S'|'
p2536
NNNI48
I1
I0
tp2537
bS'Contraceptive prevalence (% of women ages 15-49)'
p2538
tp2539
Rp2540
(lp2541
(lp2542
tp2543
a(g1
(g2
(S'S14'
p2544
I0
I1
tp2545
Rp2546
(I3
S'|'
p2547
NNNI14
I1
I0
tp2548
bS'European Union'
p2549
tp2550
Rp2551
g1
(g2
(S'S48'
p2552
I0
I1
tp2553
Rp2554
(I3
S'|'
p2555
NNNI48
I1
I0
tp2556
bS'Contraceptive prevalence (% of women ages 15-49)'
p2557
tp2558
Rp2559
(lp2560
g1
(g41
S'\x00\x00\x00\xf0\xac\xa4\x86A'
p2561
tp2562
Rp2563
ag1
(g41
S'\x00\x00\x00P\x97\xb6\x87A'
p2564
tp2565
Rp2566
ag1
(g41
S'\x00\x00\x00x\xe8\xac\x89A'
p2567
tp2568
Rp2569
ag1
(g41
S'\x00\x00\x00\xf8\x9d\xd0\x8bA'
p2570
tp2571
Rp2572
ag1
(g41
S'\x00\x00\x00DI5\x90A'
p2573
tp2574
Rp2575
ag1
(g41
S'\x00\x00\x00T\x82\x13\x91A'
p2576
tp2577
Rp2578
ag1
(g41
S"\x00\x00\x00T\x8b'\x92A"
p2579
tp2580
Rp2581
ag1
(g41
S'\x00\x00\x00t\x95p\x95A'
p2582
tp2583
Rp2584
ag1
(g41
S'X\xca2\x1e\xc2\x82\x95A'
p2585
tp2586
Rp2587
ag1
(g41
S'\xb1\xbb\xa5\x12\x82\xa4\x92A'
p2588
tp2589
Rp2590
ag1
(g41
S'f\x8b/\xd4C\xb4\x94A'
p2591
tp2592
Rp2593
ag1
(g41
S'\x92\xb4\xae\xa0C\x8c\x96A'
p2594
tp2595
Rp2596
ag1
(g41
S'\xf4\xc0O/?\x96\x97A'
p2597
tp2598
Rp2599
ag1
(g41
S'\x91\x9dw#\xb8\\\x98A'
p2600
tp2601
Rp2602
a(lp2603
I2001
aI2002
aI2003
aI2004
aI2005
aI2006
aI2007
aI2008
aI2009
aI2010
aI2011
aI2012
aI2013
aI2014
atp2604
a(g1
(g2
(S'S14'
p2605
I0
I1
tp2606
Rp2607
(I3
S'|'
p2608
NNNI14
I1
I0
tp2609
bS'Faeroe Islands'
p2610
tp2611
Rp2612
g1
(g2
(S'S48'
p2613
I0
I1
tp2614
Rp2615
(I3
S'|'
p2616
NNNI48
I1
I0
tp2617
bS'Contraceptive prevalence (% of women ages 15-49)'
p2618
tp2619
Rp2620
(lp2621
(lp2622
tp2623
a(g1
(g2
(S'S4'
p2624
I0
I1
tp2625
Rp2626
(I3
S'|'
p2627
NNNI4
I1
I0
tp2628
bS'Fiji'
p2629
tp2630
Rp2631
g1
(g2
(S'S48'
p2632
I0
I1
tp2633
Rp2634
(I3
S'|'
p2635
NNNI48
I1
I0
tp2636
bS'Contraceptive prevalence (% of women ages 15-49)'
p2637
tp2638
Rp2639
(lp2640
(lp2641
tp2642
a(g1
(g2
(S'S7'
p2643
I0
I1
tp2644
Rp2645
(I3
S'|'
p2646
NNNI7
I1
I0
tp2647
bS'Finland'
p2648
tp2649
Rp2650
g1
(g2
(S'S48'
p2651
I0
I1
tp2652
Rp2653
(I3
S'|'
p2654
NNNI48
I1
I0
tp2655
bS'Contraceptive prevalence (% of women ages 15-49)'
p2656
tp2657
Rp2658
(lp2659
g1
(g41
S'\x00\x00\x00\x00|T,A'
p2660
tp2661
Rp2662
ag1
(g41
S'\x00\x00\x00\x00\xd2\x16/A'
p2663
tp2664
Rp2665
ag1
(g41
S'\x00\x00\x00\x00\x00\x950A'
p2666
tp2667
Rp2668
ag1
(g41
S'\x00\x00\x00\x00\xa0\xbc1A'
p2669
tp2670
Rp2671
ag1
(g41
S'\x00\x00\x00\x00\xd4\xf13A'
p2672
tp2673
Rp2674
ag1
(g41
S'\x00\x00\x00\x001\x064A'
p2675
tp2676
Rp2677
ag1
(g41
S'\x00\x00\x00\x00\xd4\x9c5A'
p2678
tp2679
Rp2680
ag1
(g41
S'\x00\x00\x00\x00\x19\xce7A'
p2681
tp2682
Rp2683
ag1
(g41
S'\xd7\x12\xf2\xc1\x92\x7f8A'
p2684
tp2685
Rp2686
ag1
(g41
S'\xa1;\xf3\x88\x9c,1A'
p2687
tp2688
Rp2689
ag1
(g41
S'\x94\n\xb6\xd2 \t3A'
p2690
tp2691
Rp2692
ag1
(g41
S'\x8b\x87Z\x84\x04.7A'
p2693
tp2694
Rp2695
ag1
(g41
S'\x8c\x1e\xaet~$8A'
p2696
tp2697
Rp2698
ag1
(g41
S'\x17\xb9\n\xc4u\xeb8A'
p2699
tp2700
Rp2701
a(lp2702
I2001
aI2002
aI2003
aI2004
aI2005
aI2006
aI2007
aI2008
aI2009
aI2010
aI2011
aI2012
aI2013
aI2014
atp2703
a(g1
(g2
(S'S40'
p2704
I0
I1
tp2705
Rp2706
(I3
S'|'
p2707
NNNI40
I1
I0
tp2708
bS'Fragile and conflict affected situations'
p2709
tp2710
Rp2711
g1
(g2
(S'S48'
p2712
I0
I1
tp2713
Rp2714
(I3
S'|'
p2715
NNNI48
I1
I0
tp2716
bS'Contraceptive prevalence (% of women ages 15-49)'
p2717
tp2718
Rp2719
(lp2720
(lp2721
tp2722
a(g1
(g2
(S'S6'
p2723
I0
I1
tp2724
Rp2725
(I3
S'|'
p2726
NNNI6
I1
I0
tp2727
bS'France'
p2728
tp2729
Rp2730
g1
(g2
(S'S48'
p2731
I0
I1
tp2732
Rp2733
(I3
S'|'
p2734
NNNI48
I1
I0
tp2735
bS'Contraceptive prevalence (% of women ages 15-49)'
p2736
tp2737
Rp2738
(lp2739
g1
(g41
S'\x00\x00\x00\x00[MFA'
p2740
tp2741
Rp2742
ag1
(g41
S'\x00\x00\x00\x00\x07\xdfFA'
p2743
tp2744
Rp2745
ag1
(g41
S'\x00\x00\x00\x00\xbb\xfeHA'
p2746
tp2747
Rp2748
ag1
(g41
S'\x00\x00\x00\x80\xc54KA'
p2749
tp2750
Rp2751
ag1
(g41
S'\x00\x00\x00\x80\xfe*NA'
p2752
tp2753
Rp2754
ag1
(g41
S"\x00\x00\x00\x80'\x86NA"
p2755
tp2756
Rp2757
ag1
(g41
S'\x00\x00\x00\x80\xa3?PA'
p2758
tp2759
Rp2760
ag1
(g41
S'\x00\x00\x00\x00\xab\x03SA'
p2761
tp2762
Rp2763
ag1
(g41
S'\x00\x00\x00\x80)\xa5RA'
p2764
tp2765
Rp2766
ag1
(g41
S'\x00\x00\x00\x80\xa5\xd4QA'
p2767
tp2768
Rp2769
ag1
(g41
S"{\x14\xae'\xaa5UA"
p2770
tp2771
Rp2772
ag1
(g41
S'\xb4\x02C\x02AQUA'
p2773
tp2774
Rp2775
ag1
(g41
S'\xe8\xa2\xa1\xa5\xfa\xa7VA'
p2776
tp2777
Rp2778
ag1
(g41
S'\xe4i\xb9]bNXA'
p2779
tp2780
Rp2781
a(lp2782
I2001
aI2002
aI2003
aI2004
aI2005
aI2006
aI2007
aI2008
aI2009
aI2010
aI2011
aI2012
aI2013
aI2014
atp2783
a(g1
(g2
(S'S16'
p2784
I0
I1
tp2785
Rp2786
(I3
S'|'
p2787
NNNI16
I1
I0
tp2788
bS'French Polynesia'
p2789
tp2790
Rp2791
g1
(g2
(S'S48'
p2792
I0
I1
tp2793
Rp2794
(I3
S'|'
p2795
NNNI48
I1
I0
tp2796
bS'Contraceptive prevalence (% of women ages 15-49)'
p2797
tp2798
Rp2799
(lp2800
g1
(g41
S'\x00\x00\x00\x00@\xf8\xf0@'
p2801
tp2802
Rp2803
ag1
(g41
S'\x00\x00\x00\x00\x00,\xf1@'
p2804
tp2805
Rp2806
ag1
(g41
S"\x00\x00\x00\x00\xe0'\xef@"
p2807
tp2808
Rp2809
ag1
(g41
S'\x00\x00\x00\x00\x90\xd1\xf0@'
p2810
tp2811
Rp2812
ag1
(g41
S'\xe3\xa5\x9b\xc4\xfa\xc6\xf1@'
p2813
tp2814
Rp2815
ag1
(g41
S'\x88\x85Z\x93M\x1c\xf3@'
p2816
tp2817
Rp2818
ag1
(g41
S'C-\x17\x83\xcb\x9e\xf4@'
p2819
tp2820
Rp2821
a(lp2822
I2008
aI2009
aI2010
aI2011
aI2012
aI2013
aI2014
atp2823
a(g1
(g2
(S'S5'
p2824
I0
I1
tp2825
Rp2826
(I3
S'|'
p2827
NNNI5
I1
I0
tp2828
bS'Gabon'
p2829
tp2830
Rp2831
g1
(g2
(S'S48'
p2832
I0
I1
tp2833
Rp2834
(I3
S'|'
p2835
NNNI48
I1
I0
tp2836
bS'Contraceptive prevalence (% of women ages 15-49)'
p2837
tp2838
Rp2839
(lp2840
g1
(g41
S'\x00\x00\x00\x00 e\x03A'
p2841
tp2842
Rp2843
ag1
(g41
S"ffff\xe6'\x00A"
p2844
tp2845
Rp2846
ag1
(g41
S"'\xc2\x86\xa7\xc7\xc1\x02A"
p2847
tp2848
Rp2849
ag1
(g41
S'J\x10\t:{\xd3\x03A'
p2850
tp2851
Rp2852
ag1
(g41
S'\x83\xf1\xfcw$P\x05A'
p2853
tp2854
Rp2855
ag1
(g41
S'm&e~-\xff\x06A'
p2856
tp2857
Rp2858
a(lp2859
I2009
aI2010
aI2011
aI2012
aI2013
aI2014
atp2860
a(g1
(g2
(S'S7'
p2861
I0
I1
tp2862
Rp2863
(I3
S'|'
p2864
NNNI7
I1
I0
tp2865
bS'Georgia'
p2866
tp2867
Rp2868
g1
(g2
(S'S48'
p2869
I0
I1
tp2870
Rp2871
(I3
S'|'
p2872
NNNI48
I1
I0
tp2873
bS'Contraceptive prevalence (% of women ages 15-49)'
p2874
tp2875
Rp2876
(lp2877
g1
(g41
S'\x00\x00\x00\x00\xc0\x8e\x06A'
p2878
tp2879
Rp2880
ag1
(g41
S'\x00\x00\x00\x00\x98\xfb\x0eA'
p2881
tp2882
Rp2883
ag1
(g41
S'\x00\x00\x00\x00h+\x06A'
p2884
tp2885
Rp2886
ag1
(g41
S'\x00\x00\x00\x00\x18\x9a\x0bA'
p2887
tp2888
Rp2889
ag1
(g41
S'\n\xd7\xa3p\xdc,\rA'
p2890
tp2891
Rp2892
ag1
(g41
S'\xc5 \xb0\x92\x06]\x0fA'
p2893
tp2894
Rp2895
ag1
(g41
S'CUL\xcb\xa8\xeb\x10A'
p2896
tp2897
Rp2898
a(lp2899
I2008
aI2009
aI2010
aI2011
aI2012
aI2013
aI2014
atp2900
a(g1
(g2
(S'S7'
p2901
I0
I1
tp2902
Rp2903
(I3
S'|'
p2904
NNNI7
I1
I0
tp2905
bS'Germany'
p2906
tp2907
Rp2908
g1
(g2
(S'S48'
p2909
I0
I1
tp2910
Rp2911
(I3
S'|'
p2912
NNNI48
I1
I0
tp2913
bS'Contraceptive prevalence (% of women ages 15-49)'
p2914
tp2915
Rp2916
(lp2917
g1
(g41
S'\x00\x00\x00\x00R[]A'
p2918
tp2919
Rp2920
ag1
(g41
S'\x00\x00\x00\x00\x83\x12`A'
p2921
tp2922
Rp2923
ag1
(g41
S'\x00\x00\x00\xc0\xe7\xa5aA'
p2924
tp2925
Rp2926
ag1
(g41
S'\x00\x00\x00\x80{\xdfdA'
p2927
tp2928
Rp2929
ag1
(g41
S'\x00\x00\x00`w\xcdgA'
p2930
tp2931
Rp2932
ag1
(g41
S'\x00\x00\x00`!\xf0iA'
p2933
tp2934
Rp2935
ag1
(g41
S'\x00\x00\x00`\xf3\xa0lA'
p2936
tp2937
Rp2938
ag1
(g41
S'\x00\x00\x00\xc0\x0f\xbfoA'
p2939
tp2940
Rp2941
ag1
(g41
S'\xadi\xde!\x14cpA'
p2942
tp2943
Rp2944
ag1
(g41
S'\xa0 \xcc\x86U\\iA'
p2945
tp2946
Rp2947
ag1
(g41
S'\xaf\xc6#\xd50ElA'
p2948
tp2949
Rp2950
ag1
(g41
S'1\xe0\xf6x\xc9kpA'
p2951
tp2952
Rp2953
ag1
(g41
S'\xfa0\xd6Xb\x02rA'
p2954
tp2955
Rp2956
ag1
(g41
S'D\x99\xf70E(rA'
p2957
tp2958
Rp2959
a(lp2960
I2001
aI2002
aI2003
aI2004
aI2005
aI2006
aI2007
aI2008
aI2009
aI2010
aI2011
aI2012
aI2013
aI2014
atp2961
a(g1
(g2
(S'S5'
p2962
I0
I1
tp2963
Rp2964
(I3
S'|'
p2965
NNNI5
I1
I0
tp2966
bS'Ghana'
p2967
tp2968
Rp2969
g1
(g2
(S'S48'
p2970
I0
I1
tp2971
Rp2972
(I3
S'|'
p2973
NNNI48
I1
I0
tp2974
bS'Contraceptive prevalence (% of women ages 15-49)'
p2975
tp2976
Rp2977
(lp2978
g1
(g41
S'\x00\x00\x00\x00L\x9c A'
p2979
tp2980
Rp2981
ag1
(g41
S'e\x19\xe2X\xde\xb3"A'
p2982
tp2983
Rp2984
ag1
(g41
S'\xd1\xd3xp\x16\x02!A'
p2985
tp2986
Rp2987
ag1
(g41
S'H\xb0\x1d\x84\x18\xbf#A'
p2988
tp2989
Rp2990
ag1
(g41
S'\xd5\xee6y<\xdf$A'
p2991
tp2992
Rp2993
ag1
(g41
S'V\xda\xe7\x9b\xfao&A'
p2994
tp2995
Rp2996
ag1
(g41
S'\xfap\xd0\xd6\xc05(A'
p2997
tp2998
Rp2999
a(lp3000
I2008
aI2009
aI2010
aI2011
aI2012
aI2013
aI2014
atp3001
a(g1
(g2
(S'S6'
p3002
I0
I1
tp3003
Rp3004
(I3
S'|'
p3005
NNNI6
I1
I0
tp3006
bS'Greece'
p3007
tp3008
Rp3009
g1
(g2
(S'S48'
p3010
I0
I1
tp3011
Rp3012
(I3
S'|'
p3013
NNNI48
I1
I0
tp3014
bS'Contraceptive prevalence (% of women ages 15-49)'
p3015
tp3016
Rp3017
(lp3018
g1
(g41
S'\x00\x00\x00\x00\xfc85A'
p3019
tp3020
Rp3021
ag1
(g41
S'\x00\x00\x00\x00\xbe\x8c5A'
p3022
tp3023
Rp3024
ag1
(g41
S'\x00\x00\x00\x00^V9A'
p3025
tp3026
Rp3027
ag1
(g41
S'\x00\x00\x00\x00\x99\x1d=A'
p3028
tp3029
Rp3030
ag1
(g41
S'\x00\x00\x00\x00K\xed<A'
p3031
tp3032
Rp3033
ag1
(g41
S'\x00\x00\x00\x00V%;A'
p3034
tp3035
Rp3036
ag1
(g41
S'\x00\x00\x00\x00\x8a\xfe:A'
p3037
tp3038
Rp3039
ag1
(g41
S'\x00\x00\x00\x00\xbd\xc6;A'
p3040
tp3041
Rp3042
ag1
(g41
S'\x00\x00\x00\x00\x14\x86$A'
p3043
tp3044
Rp3045
ag1
(g41
S'\x00\x00\x00\x00H\x89,A'
p3046
tp3047
Rp3048
ag1
(g41
S'\x00\x00\x00\x00\x81\xc71A'
p3049
tp3050
Rp3051
ag1
(g41
S'\x00\x00\x00\x00\xbd8>A'
p3052
tp3053
Rp3054
ag1
(g41
S'333\xb3HhGA'
p3055
tp3056
Rp3057
ag1
(g41
S'\xcc\xee\xc9\x937\xa4JA'
p3058
tp3059
Rp3060
a(lp3061
I2001
aI2002
aI2003
aI2004
aI2005
aI2006
aI2007
aI2008
aI2009
aI2010
aI2011
aI2012
aI2013
aI2014
atp3062
a(g1
(g2
(S'S9'
p3063
I0
I1
tp3064
Rp3065
(I3
S'|'
p3066
NNNI9
I1
I0
tp3067
bS'Greenland'
p3068
tp3069
Rp3070
g1
(g2
(S'S48'
p3071
I0
I1
tp3072
Rp3073
(I3
S'|'
p3074
NNNI48
I1
I0
tp3075
bS'Contraceptive prevalence (% of women ages 15-49)'
p3076
tp3077
Rp3078
(lp3079
(lp3080
tp3081
a(g1
(g2
(S'S7'
p3082
I0
I1
tp3083
Rp3084
(I3
S'|'
p3085
NNNI7
I1
I0
tp3086
bS'Grenada'
p3087
tp3088
Rp3089
g1
(g2
(S'S48'
p3090
I0
I1
tp3091
Rp3092
(I3
S'|'
p3093
NNNI48
I1
I0
tp3094
bS'Contraceptive prevalence (% of women ages 15-49)'
p3095
tp3096
Rp3097
(lp3098
(lp3099
tp3100
a(g1
(g2
(S'S4'
p3101
I0
I1
tp3102
Rp3103
(I3
S'|'
p3104
NNNI4
I1
I0
tp3105
bS'Guam'
p3106
tp3107
Rp3108
g1
(g2
(S'S48'
p3109
I0
I1
tp3110
Rp3111
(I3
S'|'
p3112
NNNI48
I1
I0
tp3113
bS'Contraceptive prevalence (% of women ages 15-49)'
p3114
tp3115
Rp3116
(lp3117
g1
(g41
S'\x00\x00\x00\x00\x981\x04A'
p3118
tp3119
Rp3120
ag1
(g41
S'\x00\x00\x00\x00@{\x04A'
p3121
tp3122
Rp3123
ag1
(g41
S'\x00\x00\x00\x00@-\x03A'
p3124
tp3125
Rp3126
ag1
(g41
S'\x00\x00\x00\x00p]\x06A'
p3127
tp3128
Rp3129
ag1
(g41
S'%\x06\x81\x95\xc9\xa3\x07A'
p3130
tp3131
Rp3132
ag1
(g41
S'\x9b\xe6\x1d\xe7\xabi\tA'
p3133
tp3134
Rp3135
ag1
(g41
S'\xa6&f\x9a\x9ek\x0bA'
p3136
tp3137
Rp3138
a(lp3139
I2008
aI2009
aI2010
aI2011
aI2012
aI2013
aI2014
atp3140
a(g1
(g2
(S'S9'
p3141
I0
I1
tp3142
Rp3143
(I3
S'|'
p3144
NNNI9
I1
I0
tp3145
bS'Guatemala'
p3146
tp3147
Rp3148
g1
(g2
(S'S48'
p3149
I0
I1
tp3150
Rp3151
(I3
S'|'
p3152
NNNI48
I1
I0
tp3153
bS'Contraceptive prevalence (% of women ages 15-49)'
p3154
tp3155
Rp3156
(lp3157
g1
(g41
S'\x00\x00\x00\x00\x04C\x1eA'
p3158
tp3159
Rp3160
ag1
(g41
S'\x00\x00\x00\x00`\xa9\x13A'
p3161
tp3162
Rp3163
ag1
(g41
S'\x00\x00\x00\x00\x80\xfb\x15A'
p3164
tp3165
Rp3166
ag1
(g41
S'\x00\x00\x00\x00\xba\xc3%A'
p3167
tp3168
Rp3169
ag1
(g41
S'\x00\x00\x00\x00\xf8:)A'
p3170
tp3171
Rp3172
ag1
(g41
S"\x00\x00\x00\x00\x96\xb1'A"
p3173
tp3174
Rp3175
ag1
(g41
S'\x00\x00\x00\x00\xeak(A'
p3176
tp3177
Rp3178
ag1
(g41
S'\x00\x00\x00\x00 \x8f*A'
p3179
tp3180
Rp3181
ag1
(g41
S'\x00\x00\x00\x00T\x9d,A'
p3182
tp3183
Rp3184
ag1
(g41
S'\x00\x00\x00\x00\xac\xa8+A'
p3185
tp3186
Rp3187
ag1
(g41
S'\x00\x00\x00\x00\x10\xe5.A'
p3188
tp3189
Rp3190
ag1
(g41
S'\x00\x00\x00\x00\\\xbf1A'
p3191
tp3192
Rp3193
ag1
(g41
S'\x00\x00\x00\x00\x00\xad1A'
p3194
tp3195
Rp3196
ag1
(g41
S'\x00\x00\x00\x00\xd0|2A'
p3197
tp3198
Rp3199
a(lp3200
I2001
aI2002
aI2003
aI2004
aI2005
aI2006
aI2007
aI2008
aI2009
aI2010
aI2011
aI2012
aI2013
aI2014
atp3201
a(g1
(g2
(S'S6'
p3202
I0
I1
tp3203
Rp3204
(I3
S'|'
p3205
NNNI6
I1
I0
tp3206
bS'Guinea'
p3207
tp3208
Rp3209
g1
(g2
(S'S48'
p3210
I0
I1
tp3211
Rp3212
(I3
S'|'
p3213
NNNI48
I1
I0
tp3214
bS'Contraceptive prevalence (% of women ages 15-49)'
p3215
tp3216
Rp3217
(lp3218
(lp3219
tp3220
a(g1
(g2
(S'S13'
p3221
I0
I1
tp3222
Rp3223
(I3
S'|'
p3224
NNNI13
I1
I0
tp3225
bS'Guinea-Bissau'
p3226
tp3227
Rp3228
g1
(g2
(S'S48'
p3229
I0
I1
tp3230
Rp3231
(I3
S'|'
p3232
NNNI48
I1
I0
tp3233
bS'Contraceptive prevalence (% of women ages 15-49)'
p3234
tp3235
Rp3236
(lp3237
(lp3238
tp3239
a(g1
(g2
(S'S6'
p3240
I0
I1
tp3241
Rp3242
(I3
S'|'
p3243
NNNI6
I1
I0
tp3244
bS'Guyana'
p3245
tp3246
Rp3247
g1
(g2
(S'S48'
p3248
I0
I1
tp3249
Rp3250
(I3
S'|'
p3251
NNNI48
I1
I0
tp3252
bS'Contraceptive prevalence (% of women ages 15-49)'
p3253
tp3254
Rp3255
(lp3256
(lp3257
tp3258
a(g1
(g2
(S'S5'
p3259
I0
I1
tp3260
Rp3261
(I3
S'|'
p3262
NNNI5
I1
I0
tp3263
bS'Haiti'
p3264
tp3265
Rp3266
g1
(g2
(S'S48'
p3267
I0
I1
tp3268
Rp3269
(I3
S'|'
p3270
NNNI48
I1
I0
tp3271
bS'Contraceptive prevalence (% of women ages 15-49)'
p3272
tp3273
Rp3274
(lp3275
(lp3276
tp3277
a(g1
(g2
(S'S38'
p3278
I0
I1
tp3279
Rp3280
(I3
S'|'
p3281
NNNI38
I1
I0
tp3282
bS'Heavily indebted poor countries (HIPC)'
p3283
tp3284
Rp3285
g1
(g2
(S'S48'
p3286
I0
I1
tp3287
Rp3288
(I3
S'|'
p3289
NNNI48
I1
I0
tp3290
bS'Contraceptive prevalence (% of women ages 15-49)'
p3291
tp3292
Rp3293
(lp3294
(lp3295
tp3296
a(g1
(g2
(S'S11'
p3297
I0
I1
tp3298
Rp3299
(I3
S'|'
p3300
NNNI11
I1
I0
tp3301
bS'High income'
p3302
tp3303
Rp3304
g1
(g2
(S'S48'
p3305
I0
I1
tp3306
Rp3307
(I3
S'|'
p3308
NNNI48
I1
I0
tp3309
bS'Contraceptive prevalence (% of women ages 15-49)'
p3310
tp3311
Rp3312
(lp3313
g1
(g41
S'\x00\x00\x00\xa6\x86s\xa1A'
p3314
tp3315
Rp3316
ag1
(g41
S'\x00\x00\x00\xc0\x88\xc6\xa1A'
p3317
tp3318
Rp3319
ag1
(g41
S"\x00\x00\x00V'>\xa3A"
p3320
tp3321
Rp3322
ag1
(g41
S'\x00\x00\x00\xea\xcbm\xa5A'
p3323
tp3324
Rp3325
ag1
(g41
S'\x00\x00\x00:\t\xcd\xa7A'
p3326
tp3327
Rp3328
ag1
(g41
S'\x00\x00\x00\xee\xce{\xacA'
p3329
tp3330
Rp3331
ag1
(g41
S'\x00\x00\x00(\x8dD\xaeA'
p3332
tp3333
Rp3334
ag1
(g41
S'\x00\x00\x00\x1aZ \xb1A'
p3335
tp3336
Rp3337
ag1
(g41
S'\x15\x1d\xc9\x06WD\xb1A'
p3338
tp3339
Rp3340
ag1
(g41
S'\\;!\x06\xe4\x94\xaeA'
p3341
tp3342
Rp3343
ag1
(g41
S'\xccCZ\x8e (\xb1A'
p3344
tp3345
Rp3346
ag1
(g41
S'\x15\xe0\xa33\x14B\xb2A'
p3347
tp3348
Rp3349
ag1
(g41
S'\x9b!){\x94\xf7\xb2A'
p3350
tp3351
Rp3352
ag1
(g41
S'\x19r\xf0(\x87`\xb3A'
p3353
tp3354
Rp3355
a(lp3356
I2001
aI2002
aI2003
aI2004
aI2005
aI2006
aI2007
aI2008
aI2009
aI2010
aI2011
aI2012
aI2013
aI2014
atp3357
a(g1
(g2
(S'S20'
p3358
I0
I1
tp3359
Rp3360
(I3
S'|'
p3361
NNNI20
I1
I0
tp3362
bS'High income: nonOECD'
p3363
tp3364
Rp3365
g1
(g2
(S'S48'
p3366
I0
I1
tp3367
Rp3368
(I3
S'|'
p3369
NNNI48
I1
I0
tp3370
bS'Contraceptive prevalence (% of women ages 15-49)'
p3371
tp3372
Rp3373
(lp3374
g1
(g41
S'\x00\x00\x00P\x14r\x83A'
p3375
tp3376
Rp3377
ag1
(g41
S'\x00\x00\x00\x18\x8e^\x83A'
p3378
tp3379
Rp3380
ag1
(g41
S'\x00\x00\x00\xf8\x86*\x84A'
p3381
tp3382
Rp3383
ag1
(g41
S'\x00\x00\x00\xd8\xb1\x83\x87A'
p3384
tp3385
Rp3386
ag1
(g41
S'\x00\x00\x00\x90\xab\xe2\x89A'
p3387
tp3388
Rp3389
ag1
(g41
S'\x00\x00\x00\xf8\xbd \x94A'
p3390
tp3391
Rp3392
ag1
(g41
S'\x00\x00\x00\xc8\xe5g\x95A'
p3393
tp3394
Rp3395
ag1
(g41
S'\x00\x00\x008\x80n\x98A'
p3396
tp3397
Rp3398
ag1
(g41
S'\xe9H.\x8b\xb3u\x99A'
p3399
tp3400
Rp3401
ag1
(g41
S'\xda\xee\\\x06\x93\x9c\x96A'
p3402
tp3403
Rp3404
ag1
(g41
S'\xe1\x98\x85\x0cgP\x99A'
p3405
tp3406
Rp3407
ag1
(g41
S'\xefu\xc2\x93H\xba\x9aA'
p3408
tp3409
Rp3410
ag1
(g41
S'\xd2\x8d0b\x9f\x96\x9bA'
p3411
tp3412
Rp3413
ag1
(g41
S'\xca\x17\xc43\tA\x9cA'
p3414
tp3415
Rp3416
a(lp3417
I2001
aI2002
aI2003
aI2004
aI2005
aI2006
aI2007
aI2008
aI2009
aI2010
aI2011
aI2012
aI2013
aI2014
atp3418
a(g1
(g2
(S'S17'
p3419
I0
I1
tp3420
Rp3421
(I3
S'|'
p3422
NNNI17
I1
I0
tp3423
bS'High income: OECD'
p3424
tp3425
Rp3426
g1
(g2
(S'S48'
p3427
I0
I1
tp3428
Rp3429
(I3
S'|'
p3430
NNNI48
I1
I0
tp3431
bS'Contraceptive prevalence (% of women ages 15-49)'
p3432
tp3433
Rp3434
(lp3435
g1
(g41
S'\x00\x00\x00$\x03.\x99A'
p3436
tp3437
Rp3438
ag1
(g41
S'\x00\x00\x00t\xca\xdd\x99A'
p3439
tp3440
Rp3441
ag1
(g41
S'\x00\x00\x000\x0bg\x9cA'
p3442
tp3443
Rp3444
ag1
(g41
S'\x00\x00\x00\xe8\xbe\x19\x9fA'
p3445
tp3446
Rp3447
ag1
(g41
S'\x00\x00\x00V^T\xa1A'
p3448
tp3449
Rp3450
ag1
(g41
S'\x00\x00\x00\xf2ok\xa2A'
p3451
tp3452
Rp3453
ag1
(g41
S'\x00\x00\x00D\x9a\x90\xa3A'
p3454
tp3455
Rp3456
ag1
(g41
S'\x00\x00\x00\x18t\t\xa6A'
p3457
tp3458
Rp3459
ag1
(g41
S'\xb5\x15\xfbG\xd4\xcd\xa5A'
p3460
tp3461
Rp3462
ag1
(g41
S'\xeb\xc3\xf2\x82\x9aF\xa3A'
p3463
tp3464
Rp3465
ag1
(g41
S'\x06\xbbq\x96\r\xa8\xa5A'
p3466
tp3467
Rp3468
ag1
(g41
S"4\x85f\x1d\x04'\xa7A"
p3469
tp3470
Rp3471
ag1
(g41
S'L\xfc9E\xd9#\xa8A'
p3472
tp3473
Rp3474
ag1
(g41
S'M\xd8\xfe\xb7\x89\xa0\xa8A'
p3475
tp3476
Rp3477
a(lp3478
I2001
aI2002
aI2003
aI2004
aI2005
aI2006
aI2007
aI2008
aI2009
aI2010
aI2011
aI2012
aI2013
aI2014
atp3479
a(g1
(g2
(S'S8'
p3480
I0
I1
tp3481
Rp3482
(I3
S'|'
p3483
NNNI8
I1
I0
tp3484
bS'Honduras'
p3485
tp3486
Rp3487
g1
(g2
(S'S48'
p3488
I0
I1
tp3489
Rp3490
(I3
S'|'
p3491
NNNI48
I1
I0
tp3492
bS'Contraceptive prevalence (% of women ages 15-49)'
p3493
tp3494
Rp3495
(lp3496
g1
(g41
S'\x00\x00\x00\x00\x14\xfa\x17A'
p3497
tp3498
Rp3499
ag1
(g41
S'\x00\x00\x00\x00\\\xcd\x18A'
p3500
tp3501
Rp3502
ag1
(g41
S'\x00\x00\x00\x00@B\x19A'
p3503
tp3504
Rp3505
ag1
(g41
S'\x00\x00\x00\x00\x9c\xb8\x1cA'
p3506
tp3507
Rp3508
ag1
(g41
S'\x00\x00\x00\x00\xc2\xf3 A'
p3509
tp3510
Rp3511
ag1
(g41
S'\x00\x00\x00\x00j\xe0 A'
p3512
tp3513
Rp3514
ag1
(g41
S'\x00\x00\x00\x00&l#A'
p3515
tp3516
Rp3517
ag1
(g41
S'\x00\x00\x00\x00\xd4p$A'
p3518
tp3519
Rp3520
ag1
(g41
S'\x00\x00\x00\x00\x90r!A'
p3521
tp3522
Rp3523
ag1
(g41
S'\x00\x00\x00\x00\xb6\xea"A'
p3524
tp3525
Rp3526
ag1
(g41
S'\xbct\x93\x98?7$A'
p3527
tp3528
Rp3529
ag1
(g41
S'\xe4\x83\x9e]\x14N$A'
p3530
tp3531
Rp3532
ag1
(g41
S'\x9b\x055\xed\x0cx$A'
p3533
tp3534
Rp3535
a(lp3536
I2001
aI2002
aI2003
aI2004
aI2005
aI2006
aI2008
aI2009
aI2010
aI2011
aI2012
aI2013
aI2014
atp3537
a(g1
(g2
(S'S7'
p3538
I0
I1
tp3539
Rp3540
(I3
S'|'
p3541
NNNI7
I1
I0
tp3542
bS'Hungary'
p3543
tp3544
Rp3545
g1
(g2
(S'S48'
p3546
I0
I1
tp3547
Rp3548
(I3
S'|'
p3549
NNNI48
I1
I0
tp3550
bS'Contraceptive prevalence (% of women ages 15-49)'
p3551
tp3552
Rp3553
(lp3554
(lp3555
tp3556
a(g1
(g2
(S'S7'
p3557
I0
I1
tp3558
Rp3559
(I3
S'|'
p3560
NNNI7
I1
I0
tp3561
bS'Iceland'
p3562
tp3563
Rp3564
g1
(g2
(S'S48'
p3565
I0
I1
tp3566
Rp3567
(I3
S'|'
p3568
NNNI48
I1
I0
tp3569
bS'Contraceptive prevalence (% of women ages 15-49)'
p3570
tp3571
Rp3572
(lp3573
g1
(g41
S'\x00\x00\x00\x00\x90\xce\x11A'
p3574
tp3575
Rp3576
ag1
(g41
S'\x00\x00\x00\x00<N\x10A'
p3577
tp3578
Rp3579
ag1
(g41
S'\x00\x00\x00\x00\xc0\xa8\x07A'
p3580
tp3581
Rp3582
ag1
(g41
S'\x00\x00\x00\x00P\x88\x07A'
p3583
tp3584
Rp3585
ag1
(g41
S'\x00\x00\x00\x00\xe0\x9e\x07A'
p3586
tp3587
Rp3588
ag1
(g41
S'\x00\x00\x00\x00dd\tA'
p3589
tp3590
Rp3591
ag1
(g41
S'fff\xe6\xebe\x0bA'
p3592
tp3593
Rp3594
a(lp3595
I2008
aI2009
aI2010
aI2011
aI2012
aI2013
aI2014
atp3596
a(g1
(g2
(S'S5'
p3597
I0
I1
tp3598
Rp3599
(I3
S'|'
p3600
NNNI5
I1
I0
tp3601
bS'India'
p3602
tp3603
Rp3604
g1
(g2
(S'S48'
p3605
I0
I1
tp3606
Rp3607
(I3
S'|'
p3608
NNNI48
I1
I0
tp3609
bS'Contraceptive prevalence (% of women ages 15-49)'
p3610
tp3611
Rp3612
(lp3613
g1
(g41
S'\x00\x00\x00\x00p\xb2BA'
p3614
tp3615
Rp3616
ag1
(g41
S'\x00\x00\x00\x80\xea\x17EA'
p3617
tp3618
Rp3619
ag1
(g41
S'\x00\x00\x00\x00^zHA'
p3620
tp3621
Rp3622
ag1
(g41
S'\x00\x00\x00\x00\x07\xe2MA'
p3623
tp3624
Rp3625
ag1
(g41
S'\x00\x00\x00\xc0O\x87PA'
p3626
tp3627
Rp3628
ag1
(g41
S'\x00\x00\x00\x00S\x01SA'
p3629
tp3630
Rp3631
ag1
(g41
S'\x00\x00\x00\x007mWA'
p3632
tp3633
Rp3634
ag1
(g41
S'\x00\x00\x00\xc0\xd08\\A'
p3635
tp3636
Rp3637
ag1
(g41
S'\x00\x00\x00@\xa2D]A'
p3638
tp3639
Rp3640
ag1
(g41
S'\xcd\xcc\xcc\xcc\xa5\x92^A'
p3641
tp3642
Rp3643
ag1
(g41
S'\x00\x00\x00\x80)\x9abA'
p3644
tp3645
Rp3646
ag1
(g41
S'\xb4\xc8v\xa2\xea\x9dcA'
p3647
tp3648
Rp3649
ag1
(g41
S'\xf8\xc2d\x11\x8b\xa0cA'
p3650
tp3651
Rp3652
ag1
(g41
S'\xa1\xe1(\xde\xd3QdA'
p3653
tp3654
Rp3655
a(lp3656
I2001
aI2002
aI2003
aI2004
aI2005
aI2006
aI2007
aI2008
aI2009
aI2010
aI2011
aI2012
aI2013
aI2014
atp3657
a(g1
(g2
(S'S9'
p3658
I0
I1
tp3659
Rp3660
(I3
S'|'
p3661
NNNI9
I1
I0
tp3662
bS'Indonesia'
p3663
tp3664
Rp3665
g1
(g2
(S'S48'
p3666
I0
I1
tp3667
Rp3668
(I3
S'|'
p3669
NNNI48
I1
I0
tp3670
bS'Contraceptive prevalence (% of women ages 15-49)'
p3671
tp3672
Rp3673
(lp3674
g1
(g41
S'\x00\x00\x00\x00\xde\xf9LA'
p3675
tp3676
Rp3677
ag1
(g41
S'\x00\x00\x00\x80\xa0\xc4MA'
p3678
tp3679
Rp3680
ag1
(g41
S'\x00\x00\x00\x00zQQA'
p3681
tp3682
Rp3683
ag1
(g41
S'\x00\x00\x00\x80\xa5\xbfSA'
p3684
tp3685
Rp3686
ag1
(g41
S'\x00\x00\x00@t{TA'
p3687
tp3688
Rp3689
ag1
(g41
S'\x00\x00\x00\x002\xfeTA'
p3690
tp3691
Rp3692
ag1
(g41
S'\x00\x00\x00\x00"wPA'
p3693
tp3694
Rp3695
ag1
(g41
S'\x00\x00\x00\x80\x9f\x1cYA'
p3696
tp3697
Rp3698
ag1
(g41
S'\x00\x00\x00\xc0G?\\A'
p3699
tp3700
Rp3701
ag1
(g41
S'\xf9\x0f\xe9/\xf7\xac[A'
p3702
tp3703
Rp3704
ag1
(g41
S'\xbb\xec\xfcu\xe9-`A'
p3705
tp3706
Rp3707
ag1
(g41
S'\xa26{=\x00\x1aaA'
p3708
tp3709
Rp3710
ag1
(g41
S' A\xb1\xdbYbbA'
p3711
tp3712
Rp3713
ag1
(g41
S'bY\x9fC\xc6\x94dA'
p3714
tp3715
Rp3716
a(lp3717
I2001
aI2002
aI2003
aI2004
aI2005
aI2006
aI2007
aI2008
aI2009
aI2010
aI2011
aI2012
aI2013
aI2014
atp3718
a(g1
(g2
(S'S4'
p3719
I0
I1
tp3720
Rp3721
(I3
S'|'
p3722
NNNI4
I1
I0
tp3723
bS'Iraq'
p3724
tp3725
Rp3726
g1
(g2
(S'S48'
p3727
I0
I1
tp3728
Rp3729
(I3
S'|'
p3730
NNNI48
I1
I0
tp3731
bS'Contraceptive prevalence (% of women ages 15-49)'
p3732
tp3733
Rp3734
(lp3735
(lp3736
tp3737
a(g1
(g2
(S'S7'
p3738
I0
I1
tp3739
Rp3740
(I3
S'|'
p3741
NNNI7
I1
I0
tp3742
bS'Ireland'
p3743
tp3744
Rp3745
g1
(g2
(S'S48'
p3746
I0
I1
tp3747
Rp3748
(I3
S'|'
p3749
NNNI48
I1
I0
tp3750
bS'Contraceptive prevalence (% of women ages 15-49)'
p3751
tp3752
Rp3753
(lp3754
g1
(g41
S'\x00\x00\x00\x00\xe6\x03&A'
p3755
tp3756
Rp3757
ag1
(g41
S'\x00\x00\x00\x00\xc8\t&A'
p3758
tp3759
Rp3760
ag1
(g41
S"\x00\x00\x00\x00\x1c\xa9'A"
p3761
tp3762
Rp3763
ag1
(g41
S'\x00\x00\x00\x00\xce\x89*A'
p3764
tp3765
Rp3766
ag1
(g41
S'\x00\x00\x00\x00\xaa9,A'
p3767
tp3768
Rp3769
ag1
(g41
S'\x00\x00\x00\x00\x92\xb3-A'
p3770
tp3771
Rp3772
ag1
(g41
S'\x00\x00\x00\x00\xe4\x9e0A'
p3773
tp3774
Rp3775
ag1
(g41
S'\x00\x00\x00\x00s\xee1A'
p3776
tp3777
Rp3778
ag1
(g41
S'\x8bl\xe7\xfbV,0A'
p3779
tp3780
Rp3781
ag1
(g41
S'\xb8\x1a~\x9c+d)A'
p3782
tp3783
Rp3784
ag1
(g41
S'oE7lf\x1c(A'
p3785
tp3786
Rp3787
ag1
(g41
S"6M5@ K'A"
p3788
tp3789
Rp3790
ag1
(g41
S"\xd2\x7fl\xab\x02\xf2'A"
p3791
tp3792
Rp3793
ag1
(g41
S'\xf7a"\x00@;(A'
p3794
tp3795
Rp3796
a(lp3797
I2001
aI2002
aI2003
aI2004
aI2005
aI2006
aI2007
aI2008
aI2009
aI2010
aI2011
aI2012
aI2013
aI2014
atp3798
a(g1
(g2
(S'S11'
p3799
I0
I1
tp3800
Rp3801
(I3
S'|'
p3802
NNNI11
I1
I0
tp3803
bS'Isle of Man'
p3804
tp3805
Rp3806
g1
(g2
(S'S48'
p3807
I0
I1
tp3808
Rp3809
(I3
S'|'
p3810
NNNI48
I1
I0
tp3811
bS'Contraceptive prevalence (% of women ages 15-49)'
p3812
tp3813
Rp3814
(lp3815
(lp3816
tp3817
a(g1
(g2
(S'S6'
p3818
I0
I1
tp3819
Rp3820
(I3
S'|'
p3821
NNNI6
I1
I0
tp3822
bS'Israel'
p3823
tp3824
Rp3825
g1
(g2
(S'S48'
p3826
I0
I1
tp3827
Rp3828
(I3
S'|'
p3829
NNNI48
I1
I0
tp3830
bS'Contraceptive prevalence (% of women ages 15-49)'
p3831
tp3832
Rp3833
(lp3834
g1
(g41
S'\x00\x00\x00\x00\xd3\x075A'
p3835
tp3836
Rp3837
ag1
(g41
S'\x00\x00\x00\x00\x08K6A'
p3838
tp3839
Rp3840
ag1
(g41
S'\x00\x00\x00\x000\x9f7A'
p3841
tp3842
Rp3843
ag1
(g41
S'\x00\x00\x00\x00\xd6\xd75A'
p3844
tp3845
Rp3846
ag1
(g41
S'\x00\x00\x00\x00\xd3 :A'
p3847
tp3848
Rp3849
ag1
(g41
S'\x00\x00\x00\x00\xba\x0f;A'
p3850
tp3851
Rp3852
ag1
(g41
S'\x00\x00\x00\x00\xd0\xdd=A'
p3853
tp3854
Rp3855
ag1
(g41
S'\x00\x00\x00\x00\xac\xe3?A'
p3856
tp3857
Rp3858
ag1
(g41
S'\x00\x00\x00\x00h\x05?A'
p3859
tp3860
Rp3861
ag1
(g41
S'\x00\x00\x00\x00(hAA'
p3862
tp3863
Rp3864
ag1
(g41
S'\x00\x00\x00\x00\xc8CBA'
p3865
tp3866
Rp3867
ag1
(g41
S'\x00\x00\x00\x00i\x84CA'
p3868
tp3869
Rp3870
ag1
(g41
S'\x00\x00\x00\x00\xfc^CA'
p3871
tp3872
Rp3873
a(lp3874
I2002
aI2003
aI2004
aI2005
aI2006
aI2007
aI2008
aI2009
aI2010
aI2011
aI2012
aI2013
aI2014
atp3875
a(g1
(g2
(S'S5'
p3876
I0
I1
tp3877
Rp3878
(I3
S'|'
p3879
NNNI5
I1
I0
tp3880
bS'Italy'
p3881
tp3882
Rp3883
g1
(g2
(S'S48'
p3884
I0
I1
tp3885
Rp3886
(I3
S'|'
p3887
NNNI48
I1
I0
tp3888
bS'Contraceptive prevalence (% of women ages 15-49)'
p3889
tp3890
Rp3891
(lp3892
g1
(g41
S'\x00\x00\x00\x00odZA'
p3893
tp3894
Rp3895
ag1
(g41
S'\x00\x00\x00\xc0\xac\xfbZA'
p3896
tp3897
Rp3898
ag1
(g41
S'\x00\x00\x00\x80\xe0S^A'
p3899
tp3900
Rp3901
ag1
(g41
S'\x00\x00\x00\x80P)`A'
p3902
tp3903
Rp3904
ag1
(g41
S'\x00\x00\x00\x803\x0fbA'
p3905
tp3906
Rp3907
ag1
(g41
S'\x00\x00\x00@\xe4\xccbA'
p3908
tp3909
Rp3910
ag1
(g41
S'\x00\x00\x00\xc0\x89\x8fbA'
p3911
tp3912
Rp3913
ag1
(g41
S'\x00\x00\x00\xa0\x19=dA'
p3914
tp3915
Rp3916
ag1
(g41
S'\x00\x00\x00\xc0\xb4\x15dA'
p3917
tp3918
Rp3919
ag1
(g41
S'\x00\x00\x00\xc0\x85.bA'
p3920
tp3921
Rp3922
ag1
(g41
S'\x00\x00\x00`\x01\xabbA'
p3923
tp3924
Rp3925
ag1
(g41
S'\x9c\xc4 ,E\x16dA'
p3926
tp3927
Rp3928
ag1
(g41
S'\xf4l\xd6\xb9J\x89eA'
p3929
tp3930
Rp3931
ag1
(g41
S'~0\x95\xf4\xf23gA'
p3932
tp3933
Rp3934
a(lp3935
I2001
aI2002
aI2003
aI2004
aI2005
aI2006
aI2007
aI2008
aI2009
aI2010
aI2011
aI2012
aI2013
aI2014
atp3936
a(g1
(g2
(S'S7'
p3937
I0
I1
tp3938
Rp3939
(I3
S'|'
p3940
NNNI7
I1
I0
tp3941
bS'Jamaica'
p3942
tp3943
Rp3944
g1
(g2
(S'S48'
p3945
I0
I1
tp3946
Rp3947
(I3
S'|'
p3948
NNNI48
I1
I0
tp3949
bS'Contraceptive prevalence (% of women ages 15-49)'
p3950
tp3951
Rp3952
(lp3953
g1
(g41
S"\x00\x00\x00\x002`'A"
p3954
tp3955
Rp3956
ag1
(g41
S'\x00\x00\x00\x00\xd0\x02.A'
p3957
tp3958
Rp3959
ag1
(g41
S'\x00\x00\x00\x00(@0A'
p3960
tp3961
Rp3962
ag1
(g41
S'\x00\x00\x00\x00\x86\\1A'
p3963
tp3964
Rp3965
ag1
(g41
S'\x00\x00\x00\x00\xef\xc24A'
p3966
tp3967
Rp3968
ag1
(g41
S'\x00\x00\x00\x00\x8c\x829A'
p3969
tp3970
Rp3971
ag1
(g41
S'\x00\x00\x00\x00\x04h@A'
p3972
tp3973
Rp3974
ag1
(g41
S'\x00\x00\x00\x00\x18\xc6>A'
p3975
tp3976
Rp3977
ag1
(g41
S"\x00\x00\x00\x00'<=A"
p3978
tp3979
Rp3980
ag1
(g41
S'\x00\x00\x00\x00F\xc89A'
p3981
tp3982
Rp3983
ag1
(g41
S'\x00\x00\x00\x00\xba\xdd<A'
p3984
tp3985
Rp3986
ag1
(g41
S'=\n\xd7\xe3\xf0\x82>A'
p3987
tp3988
Rp3989
ag1
(g41
S'\xb4\xc8vzaf@A'
p3990
tp3991
Rp3992
ag1
(g41
S'3\x89\xfa\x87\r\xb2AA'
p3993
tp3994
Rp3995
a(lp3996
I2001
aI2002
aI2003
aI2004
aI2005
aI2006
aI2007
aI2008
aI2009
aI2010
aI2011
aI2012
aI2013
aI2014
atp3997
a(g1
(g2
(S'S5'
p3998
I0
I1
tp3999
Rp4000
(I3
S'|'
p4001
NNNI5
I1
I0
tp4002
bS'Japan'
p4003
tp4004
Rp4005
g1
(g2
(S'S48'
p4006
I0
I1
tp4007
Rp4008
(I3
S'|'
p4009
NNNI48
I1
I0
tp4010
bS'Contraceptive prevalence (% of women ages 15-49)'
p4011
tp4012
Rp4013
(lp4014
g1
(g41
S'\x00\x00\x00\x00|\xfchA'
p4015
tp4016
Rp4017
ag1
(g41
S'\x00\x00\x00\x00\xbd\tiA'
p4018
tp4019
Rp4020
ag1
(g41
S'\x00\x00\x00\x80}\xc0iA'
p4021
tp4022
Rp4023
ag1
(g41
S'\x00\x00\x00\x00j\xb7lA'
p4024
tp4025
Rp4026
ag1
(g41
S'\x00\x00\x00@vYoA'
p4027
tp4028
Rp4029
ag1
(g41
S'\x00\x00\x00\xa0\xd6CpA'
p4030
tp4031
Rp4032
ag1
(g41
S'\x00\x00\x00\xe04\x9dqA'
p4033
tp4034
Rp4035
ag1
(g41
S'\x00\x00\x00\xa0\xd6FrA'
p4036
tp4037
Rp4038
ag1
(g41
S'\x00\x00\x00`\xe7\x10rA'
p4039
tp4040
Rp4041
ag1
(g41
S'\x00\x00\x00\xc0\x1b\x10oA'
p4042
tp4043
Rp4044
ag1
(g41
S'q=\n\x9d\x8aBqA'
p4045
tp4046
Rp4047
ag1
(g41
S'"\x89\x1e\xbc\xbc\x85rA'
p4048
tp4049
Rp4050
ag1
(g41
S'1\xa0mu\x01/sA'
p4051
tp4052
Rp4053
ag1
(g41
S'&\x18N\xe6\xbb\xc6rA'
p4054
tp4055
Rp4056
a(lp4057
I2001
aI2002
aI2003
aI2004
aI2005
aI2006
aI2007
aI2008
aI2009
aI2010
aI2011
aI2012
aI2013
aI2014
atp4058
a(g1
(g2
(S'S6'
p4059
I0
I1
tp4060
Rp4061
(I3
S'|'
p4062
NNNI6
I1
I0
tp4063
bS'Jordan'
p4064
tp4065
Rp4066
g1
(g2
(S'S48'
p4067
I0
I1
tp4068
Rp4069
(I3
S'|'
p4070
NNNI48
I1
I0
tp4071
bS'Contraceptive prevalence (% of women ages 15-49)'
p4072
tp4073
Rp4074
(lp4075
g1
(g41
S'\x00\x00\x00\x00\xc0D\x19A'
p4076
tp4077
Rp4078
ag1
(g41
S'\x00\x00\x00\x00\xe6\xc6!A'
p4079
tp4080
Rp4081
ag1
(g41
S'\x00\x00\x00\x00\xba\x95$A'
p4082
tp4083
Rp4084
ag1
(g41
S'\x00\x00\x00\x00\xf0\xe3"A'
p4085
tp4086
Rp4087
ag1
(g41
S'\x00\x00\x00\x00\x96\xf7#A'
p4088
tp4089
Rp4090
ag1
(g41
S'333s\xf4v%A'
p4091
tp4092
Rp4093
ag1
(g41
S"\x8a\x8e\xe4j\x0e)'A"
p4094
tp4095
Rp4096
a(lp4097
I2008
aI2009
aI2010
aI2011
aI2012
aI2013
aI2014
atp4098
a(g1
(g2
(S'S10'
p4099
I0
I1
tp4100
Rp4101
(I3
S'|'
p4102
NNNI10
I1
I0
tp4103
bS'Kazakhstan'
p4104
tp4105
Rp4106
g1
(g2
(S'S48'
p4107
I0
I1
tp4108
Rp4109
(I3
S'|'
p4110
NNNI48
I1
I0
tp4111
bS'Contraceptive prevalence (% of women ages 15-49)'
p4112
tp4113
Rp4114
(lp4115
(lp4116
tp4117
a(g1
(g2
(S'S5'
p4118
I0
I1
tp4119
Rp4120
(I3
S'|'
p4121
NNNI5
I1
I0
tp4122
bS'Kenya'
p4123
tp4124
Rp4125
g1
(g2
(S'S48'
p4126
I0
I1
tp4127
Rp4128
(I3
S'|'
p4129
NNNI48
I1
I0
tp4130
bS'Contraceptive prevalence (% of women ages 15-49)'
p4131
tp4132
Rp4133
(lp4134
g1
(g41
S'\x00\x00\x00\x00.\xdd!A'
p4135
tp4136
Rp4137
ag1
(g41
S'\x00\x00\x00\x00j\xca"A'
p4138
tp4139
Rp4140
ag1
(g41
S'\x00\x00\x00\x00\x80\xe2"A'
p4141
tp4142
Rp4143
ag1
(g41
S'\x00\x00\x00\x00\x80=%A'
p4144
tp4145
Rp4146
ag1
(g41
S'\x00\x00\x00\x00ps&A'
p4147
tp4148
Rp4149
ag1
(g41
S'\xcd\xcc\xcc\xcc~"(A'
p4150
tp4151
Rp4152
ag1
(g41
S'Dio\xb0\x98\n*A'
p4153
tp4154
Rp4155
a(lp4156
I2008
aI2009
aI2010
aI2011
aI2012
aI2013
aI2014
atp4157
a(g1
(g2
(S'S8'
p4158
I0
I1
tp4159
Rp4160
(I3
S'|'
p4161
NNNI8
I1
I0
tp4162
bS'Kiribati'
p4163
tp4164
Rp4165
g1
(g2
(S'S48'
p4166
I0
I1
tp4167
Rp4168
(I3
S'|'
p4169
NNNI48
I1
I0
tp4170
bS'Contraceptive prevalence (% of women ages 15-49)'
p4171
tp4172
Rp4173
(lp4174
(lp4175
tp4176
a(g1
(g2
(S'S6'
p4177
I0
I1
tp4178
Rp4179
(I3
S'|'
p4180
NNNI6
I1
I0
tp4181
bS'Kosovo'
p4182
tp4183
Rp4184
g1
(g2
(S'S48'
p4185
I0
I1
tp4186
Rp4187
(I3
S'|'
p4188
NNNI48
I1
I0
tp4189
bS'Contraceptive prevalence (% of women ages 15-49)'
p4190
tp4191
Rp4192
(lp4193
(lp4194
tp4195
a(g1
(g2
(S'S6'
p4196
I0
I1
tp4197
Rp4198
(I3
S'|'
p4199
NNNI6
I1
I0
tp4200
bS'Kuwait'
p4201
tp4202
Rp4203
g1
(g2
(S'S48'
p4204
I0
I1
tp4205
Rp4206
(I3
S'|'
p4207
NNNI48
I1
I0
tp4208
bS'Contraceptive prevalence (% of women ages 15-49)'
p4209
tp4210
Rp4211
(lp4212
g1
(g41
S'\x00\x00\x00\x00\x80\x8d$A'
p4213
tp4214
Rp4215
ag1
(g41
S'\x00\x00\x00\x00`\xe3&A'
p4216
tp4217
Rp4218
ag1
(g41
S'\x00\x00\x00\x00@w+A'
p4219
tp4220
Rp4221
ag1
(g41
S'\x00\x00\x00\x00(Y-A'
p4222
tp4223
Rp4224
ag1
(g41
S'\x00\x00\x00\x008\x10*A'
p4225
tp4226
Rp4227
ag1
(g41
S'J\x0c\x02+rB.A'
p4228
tp4229
Rp4230
ag1
(g41
S'\xfdL\xbdN\xfe\xfb/A'
p4231
tp4232
Rp4233
ag1
(g41
S'.&\xec\xe3\x0b11A'
p4234
tp4235
Rp4236
ag1
(g41
S'\xe8\x19V\xa7\xba\x8c2A'
p4237
tp4238
Rp4239
a(lp4240
I2006
aI2007
aI2008
aI2009
aI2010
aI2011
aI2012
aI2013
aI2014
atp4241
a(g1
(g2
(S'S15'
p4242
I0
I1
tp4243
Rp4244
(I3
S'|'
p4245
NNNI15
I1
I0
tp4246
bS'Kyrgyz Republic'
p4247
tp4248
Rp4249
g1
(g2
(S'S48'
p4250
I0
I1
tp4251
Rp4252
(I3
S'|'
p4253
NNNI48
I1
I0
tp4254
bS'Contraceptive prevalence (% of women ages 15-49)'
p4255
tp4256
Rp4257
(lp4258
(lp4259
tp4260
a(g1
(g2
(S'S7'
p4261
I0
I1
tp4262
Rp4263
(I3
S'|'
p4264
NNNI7
I1
I0
tp4265
bS'Lao PDR'
p4266
tp4267
Rp4268
g1
(g2
(S'S48'
p4269
I0
I1
tp4270
Rp4271
(I3
S'|'
p4272
NNNI48
I1
I0
tp4273
bS'Contraceptive prevalence (% of women ages 15-49)'
p4274
tp4275
Rp4276
(lp4277
(lp4278
tp4279
a(g1
(g2
(S'S45'
p4280
I0
I1
tp4281
Rp4282
(I3
S'|'
p4283
NNNI45
I1
I0
tp4284
bS'Latin America & Caribbean (all income levels)'
p4285
tp4286
Rp4287
g1
(g2
(S'S48'
p4288
I0
I1
tp4289
Rp4290
(I3
S'|'
p4291
NNNI48
I1
I0
tp4292
bS'Contraceptive prevalence (% of women ages 15-49)'
p4293
tp4294
Rp4295
(lp4296
g1
(g41
S'\x00\x00\x00\xa0*@nA'
p4297
tp4298
Rp4299
ag1
(g41
S'\x00\x00\x00\xa0\xac\xc3nA'
p4300
tp4301
Rp4302
ag1
(g41
S'\x00\x00\x00@?\xc8lA'
p4303
tp4304
Rp4305
ag1
(g41
S'\x00\x00\x00\x00\x8a\xa6rA'
p4306
tp4307
Rp4308
ag1
(g41
S'\x00\x00\x00p\x08CuA'
p4309
tp4310
Rp4311
ag1
(g41
S'\x00\x00\x00p\xb6\xaawA'
p4312
tp4313
Rp4314
ag1
(g41
S'\x00\x00\x00\xa0f\xb8zA'
p4315
tp4316
Rp4317
ag1
(g41
S'\x00\x00\x00\xd0\x804\x7fA'
p4318
tp4319
Rp4320
ag1
(g41
S')\xcb\x10\xb7\x17\xfd\x80A'
p4321
tp4322
Rp4323
ag1
(g41
S'\xd0]\xb7\xdf}\x1e\x7fA'
p4324
tp4325
Rp4326
ag1
(g41
S'x\xa5;Y#\x1f\x83A'
p4327
tp4328
Rp4329
ag1
(g41
S'\xae\xafO\xca\xd5\x1c\x84A'
p4330
tp4331
Rp4332
ag1
(g41
S'\xa1J\x9d\x1b8I\x85A'
p4333
tp4334
Rp4335
ag1
(g41
S'O2\x13\x06\xdf\xb9\x86A'
p4336
tp4337
Rp4338
a(lp4339
I2001
aI2002
aI2003
aI2004
aI2005
aI2006
aI2007
aI2008
aI2009
aI2010
aI2011
aI2012
aI2013
aI2014
atp4340
a(g1
(g2
(S'S43'
p4341
I0
I1
tp4342
Rp4343
(I3
S'|'
p4344
NNNI43
I1
I0
tp4345
bS'Latin America & Caribbean (developing only)'
p4346
tp4347
Rp4348
g1
(g2
(S'S48'
p4349
I0
I1
tp4350
Rp4351
(I3
S'|'
p4352
NNNI48
I1
I0
tp4353
bS'Contraceptive prevalence (% of women ages 15-49)'
p4354
tp4355
Rp4356
(lp4357
g1
(g41
S'\x00\x00\x00\xe0\xf5#dA'
p4358
tp4359
Rp4360
ag1
(g41
S'\x00\x00\x00\xe0\xf1\xbdcA'
p4361
tp4362
Rp4363
ag1
(g41
S'\x00\x00\x00\x00\x99\nfA'
p4364
tp4365
Rp4366
ag1
(g41
S'\x00\x00\x00\xe0\x00\xcfiA'
p4367
tp4368
Rp4369
ag1
(g41
S'\x00\x00\x00\xe0-\xc6mA'
p4370
tp4371
Rp4372
ag1
(g41
S'\x00\x00\x00 N\xa7pA'
p4373
tp4374
Rp4375
ag1
(g41
S'\x00\x00\x000]\xberA'
p4376
tp4377
Rp4378
ag1
(g41
S'\x00\x00\x00\xf0 \x0fuA'
p4379
tp4380
Rp4381
ag1
(g41
S'S\x96!n\x87\xb6xA'
p4382
tp4383
Rp4384
ag1
(g41
S'9<)>b\x1ewA'
p4385
tp4386
Rp4387
ag1
(g41
S'\x91~\xbb\xfd\x8a$|A'
p4388
tp4389
Rp4390
ag1
(g41
S'Iz\x1dz\xca\xf6~A'
p4391
tp4392
Rp4393
ag1
(g41
S'F\xac*\xc7\x8a\x9b\x80A'
p4394
tp4395
Rp4396
ag1
(g41
S'\x81\xc9\xa26\xf4\xb4\x81A'
p4397
tp4398
Rp4399
a(lp4400
I2001
aI2002
aI2003
aI2004
aI2005
aI2006
aI2007
aI2008
aI2009
aI2010
aI2011
aI2012
aI2013
aI2014
atp4401
a(g1
(g2
(S'S6'
p4402
I0
I1
tp4403
Rp4404
(I3
S'|'
p4405
NNNI6
I1
I0
tp4406
bS'Latvia'
p4407
tp4408
Rp4409
g1
(g2
(S'S48'
p4410
I0
I1
tp4411
Rp4412
(I3
S'|'
p4413
NNNI48
I1
I0
tp4414
bS'Contraceptive prevalence (% of women ages 15-49)'
p4415
tp4416
Rp4417
(lp4418
g1
(g41
S'\x00\x00\x00\x00\xf8\xd9\x0cA'
p4419
tp4420
Rp4421
ag1
(g41
S'\x00\x00\x00\x00\xd8\x85\x0bA'
p4422
tp4423
Rp4424
ag1
(g41
S'\x00\x00\x00\x00x\x82\x06A'
p4425
tp4426
Rp4427
ag1
(g41
S'\n\xd7\xa3pIV\x0fA'
p4428
tp4429
Rp4430
ag1
(g41
S'}\x05i\x06\xeb\xa2\x12A'
p4431
tp4432
Rp4433
ag1
(g41
S'\x00\x00\x00\x00$\xd3\x12A'
p4434
tp4435
Rp4436
ag1
(g41
S'\xcd\xcc\xccL\xdaO\x14A'
p4437
tp4438
Rp4439
a(lp4440
I2008
aI2009
aI2010
aI2011
aI2012
aI2013
aI2014
atp4441
a(g1
(g2
(S'S44'
p4442
I0
I1
tp4443
Rp4444
(I3
S'|'
p4445
NNNI44
I1
I0
tp4446
bS'Least developed countries: UN classification'
p4447
tp4448
Rp4449
g1
(g2
(S'S48'
p4450
I0
I1
tp4451
Rp4452
(I3
S'|'
p4453
NNNI48
I1
I0
tp4454
bS'Contraceptive prevalence (% of women ages 15-49)'
p4455
tp4456
Rp4457
(lp4458
(lp4459
tp4460
a(g1
(g2
(S'S7'
p4461
I0
I1
tp4462
Rp4463
(I3
S'|'
p4464
NNNI7
I1
I0
tp4465
bS'Lebanon'
p4466
tp4467
Rp4468
g1
(g2
(S'S48'
p4469
I0
I1
tp4470
Rp4471
(I3
S'|'
p4472
NNNI48
I1
I0
tp4473
bS'Contraceptive prevalence (% of women ages 15-49)'
p4474
tp4475
Rp4476
(lp4477
g1
(g41
S'\x00\x00\x00\x00 F\x12A'
p4478
tp4479
Rp4480
ag1
(g41
S'\x00\x00\x00\x00V%"A'
p4481
tp4482
Rp4483
ag1
(g41
S'\x00\x00\x00\x00R\xeb,A'
p4484
tp4485
Rp4486
ag1
(g41
S'\x00\x00\x00\x00\xd6M*A'
p4487
tp4488
Rp4489
ag1
(g41
S'\x00\x00\x00\x00RZ.A'
p4490
tp4491
Rp4492
ag1
(g41
S'\x00\x00\x00\x00F\xf7,A'
p4493
tp4494
Rp4495
ag1
(g41
S'\x00\x00\x00\x00\x12\x90/A'
p4496
tp4497
Rp4498
ag1
(g41
S'\x00\x00\x00\x00\xd4\xf1*A'
p4499
tp4500
Rp4501
ag1
(g41
S'\x00\x00\x00\x00H\x0b1A'
p4502
tp4503
Rp4504
a(lp4505
I2002
aI2007
aI2008
aI2009
aI2010
aI2011
aI2012
aI2013
aI2014
atp4506
a(g1
(g2
(S'S7'
p4507
I0
I1
tp4508
Rp4509
(I3
S'|'
p4510
NNNI7
I1
I0
tp4511
bS'Lesotho'
p4512
tp4513
Rp4514
g1
(g2
(S'S48'
p4515
I0
I1
tp4516
Rp4517
(I3
S'|'
p4518
NNNI48
I1
I0
tp4519
bS'Contraceptive prevalence (% of women ages 15-49)'
p4520
tp4521
Rp4522
(lp4523
(lp4524
tp4525
a(g1
(g2
(S'S7'
p4526
I0
I1
tp4527
Rp4528
(I3
S'|'
p4529
NNNI7
I1
I0
tp4530
bS'Liberia'
p4531
tp4532
Rp4533
g1
(g2
(S'S48'
p4534
I0
I1
tp4535
Rp4536
(I3
S'|'
p4537
NNNI48
I1
I0
tp4538
bS'Contraceptive prevalence (% of women ages 15-49)'
p4539
tp4540
Rp4541
(lp4542
(lp4543
tp4544
a(g1
(g2
(S'S5'
p4545
I0
I1
tp4546
Rp4547
(I3
S'|'
p4548
NNNI5
I1
I0
tp4549
bS'Libya'
p4550
tp4551
Rp4552
g1
(g2
(S'S48'
p4553
I0
I1
tp4554
Rp4555
(I3
S'|'
p4556
NNNI48
I1
I0
tp4557
bS'Contraceptive prevalence (% of women ages 15-49)'
p4558
tp4559
Rp4560
(lp4561
g1
(g41
S'\x00\x00\x00\x00\xa0\xd0\xfd@'
p4562
tp4563
Rp4564
ag1
(g41
S'\x00\x00\x00\x00XW\x05A'
p4565
tp4566
Rp4567
ag1
(g41
S' A\xf1c]h\x03A'
p4568
tp4569
Rp4570
ag1
(g41
S'&-\xa6\x83E\x88\x06A'
p4571
tp4572
Rp4573
ag1
(g41
S'\x95\xe7\xef!\x10\xd1\x07A'
p4574
tp4575
Rp4576
ag1
(g41
S'm\x8c\n\xdf+\x91\x16A'
p4577
tp4578
Rp4579
ag1
(g41
S'\xa1\xda\x94b\xc1\x86\x1aA'
p4580
tp4581
Rp4582
a(lp4583
I2008
aI2009
aI2010
aI2011
aI2012
aI2013
aI2014
atp4584
a(g1
(g2
(S'S13'
p4585
I0
I1
tp4586
Rp4587
(I3
S'|'
p4588
NNNI13
I1
I0
tp4589
bS'Liechtenstein'
p4590
tp4591
Rp4592
g1
(g2
(S'S48'
p4593
I0
I1
tp4594
Rp4595
(I3
S'|'
p4596
NNNI48
I1
I0
tp4597
bS'Contraceptive prevalence (% of women ages 15-49)'
p4598
tp4599
Rp4600
(lp4601
(lp4602
tp4603
a(g1
(g2
(S'S9'
p4604
I0
I1
tp4605
Rp4606
(I3
S'|'
p4607
NNNI9
I1
I0
tp4608
bS'Lithuania'
p4609
tp4610
Rp4611
g1
(g2
(S'S48'
p4612
I0
I1
tp4613
Rp4614
(I3
S'|'
p4615
NNNI48
I1
I0
tp4616
bS'Contraceptive prevalence (% of women ages 15-49)'
p4617
tp4618
Rp4619
(lp4620
g1
(g41
S'\x00\x00\x00\x00`\x9e\x13A'
p4621
tp4622
Rp4623
ag1
(g41
S'\x00\x00\x00\x00<\xc8\x16A'
p4624
tp4625
Rp4626
ag1
(g41
S'\x00\x00\x00\x00pE\x0eA'
p4627
tp4628
Rp4629
ag1
(g41
S'\x00\x00\x00\x00\xa8\x00\x12A'
p4630
tp4631
Rp4632
ag1
(g41
S'\x00\x00\x00\x00\xe0S\x17A'
p4633
tp4634
Rp4635
ag1
(g41
S'\x00\x00\x00\x00\xd0E\x17A'
p4636
tp4637
Rp4638
ag1
(g41
S'\x00\x00\x00\x00\x10\x91\x18A'
p4639
tp4640
Rp4641
a(lp4642
I2008
aI2009
aI2010
aI2011
aI2012
aI2013
aI2014
atp4643
a(g1
(g2
(S'S19'
p4644
I0
I1
tp4645
Rp4646
(I3
S'|'
p4647
NNNI19
I1
I0
tp4648
bS'Low & middle income'
p4649
tp4650
Rp4651
g1
(g2
(S'S48'
p4652
I0
I1
tp4653
Rp4654
(I3
S'|'
p4655
NNNI48
I1
I0
tp4656
bS'Contraceptive prevalence (% of women ages 15-49)'
p4657
tp4658
Rp4659
(lp4660
g1
(g41
S'\x00\x00\x00\xd4\x18\xb0\x92A'
p4661
tp4662
Rp4663
ag1
(g41
S'\x00\x00\x00\x88\xcc~\x94A'
p4664
tp4665
Rp4666
ag1
(g41
S'\x00\x00\x00P\xcdS\x98A'
p4667
tp4668
Rp4669
ag1
(g41
S'\x00\x00\x00\xb4\x9c\xf3\x9bA'
p4670
tp4671
Rp4672
ag1
(g41
S'\x00\x00\x00r$\x8b\xa0A'
p4673
tp4674
Rp4675
ag1
(g41
S'\x00\x00\x00\xf6\xfb^\xa0A'
p4676
tp4677
Rp4678
ag1
(g41
S'\x00\x00\x00\x9e\xb5i\xa3A'
p4679
tp4680
Rp4681
ag1
(g41
S'\x00\x00\x00V]#\xa8A'
p4682
tp4683
Rp4684
ag1
(g41
S'\xbct\x93\x0c\n\xff\xaaA'
p4685
tp4686
Rp4687
ag1
(g41
S'&Tp$\xc0\xb4\xa9A'
p4688
tp4689
Rp4690
ag1
(g41
S']k7\xa0\xd7S\xaeA'
p4691
tp4692
Rp4693
ag1
(g41
S'\xd2\x00\xae\x115\xc2\xb0A'
p4694
tp4695
Rp4696
ag1
(g41
S'\xa9l8\x0f \xca\xb1A'
p4697
tp4698
Rp4699
ag1
(g41
S'\xf1\xbd\xb7\xcern\xb3A'
p4700
tp4701
Rp4702
a(lp4703
I2001
aI2002
aI2003
aI2004
aI2005
aI2006
aI2007
aI2008
aI2009
aI2010
aI2011
aI2012
aI2013
aI2014
atp4704
a(g1
(g2
(S'S10'
p4705
I0
I1
tp4706
Rp4707
(I3
S'|'
p4708
NNNI10
I1
I0
tp4709
bS'Low income'
p4710
tp4711
Rp4712
g1
(g2
(S'S48'
p4713
I0
I1
tp4714
Rp4715
(I3
S'|'
p4716
NNNI48
I1
I0
tp4717
bS'Contraceptive prevalence (% of women ages 15-49)'
p4718
tp4719
Rp4720
(lp4721
(lp4722
tp4723
a(g1
(g2
(S'S19'
p4724
I0
I1
tp4725
Rp4726
(I3
S'|'
p4727
NNNI19
I1
I0
tp4728
bS'Lower middle income'
p4729
tp4730
Rp4731
g1
(g2
(S'S48'
p4732
I0
I1
tp4733
Rp4734
(I3
S'|'
p4735
NNNI48
I1
I0
tp4736
bS'Contraceptive prevalence (% of women ages 15-49)'
p4737
tp4738
Rp4739
(lp4740
g1
(g41
S'\x00\x00\x00\x00\x92\xdenA'
p4741
tp4742
Rp4743
ag1
(g41
S'\x00\x00\x00\x00\xbf\x04qA'
p4744
tp4745
Rp4746
ag1
(g41
S'\x00\x00\x00 \xfd\rqA'
p4747
tp4748
Rp4749
ag1
(g41
S'\x00\x00\x00\xa0~IuA'
p4750
tp4751
Rp4752
ag1
(g41
S'\x00\x00\x00`\x8a\x1eyA'
p4753
tp4754
Rp4755
ag1
(g41
S'\x00\x00\x00\x80\xa7\xf2zA'
p4756
tp4757
Rp4758
ag1
(g41
S'\x00\x00\x00\x90\xd7i|A'
p4759
tp4760
Rp4761
ag1
(g41
S'\x00\x00\x008m\xeb\x83A'
p4762
tp4763
Rp4764
ag1
(g41
S"\xcaT\xc10h'\x86A"
p4765
tp4766
Rp4767
ag1
(g41
S'H\xbc\x01\x1e\x7f;\x86A'
p4768
tp4769
Rp4770
ag1
(g41
S'{\x07\xa9\xbe\x81\xcc\x89A'
p4771
tp4772
Rp4773
ag1
(g41
S'\x9b\x9bE\xdcX9\x8cA'
p4774
tp4775
Rp4776
ag1
(g41
S';\x0e\x9d\x92J\xd7\x8aA'
p4777
tp4778
Rp4779
ag1
(g41
S'ax\xbbSS\xf4\x8eA'
p4780
tp4781
Rp4782
a(lp4783
I2001
aI2002
aI2003
aI2004
aI2005
aI2006
aI2007
aI2008
aI2009
aI2010
aI2011
aI2012
aI2013
aI2014
atp4784
a(g1
(g2
(S'S10'
p4785
I0
I1
tp4786
Rp4787
(I3
S'|'
p4788
NNNI10
I1
I0
tp4789
bS'Luxembourg'
p4790
tp4791
Rp4792
g1
(g2
(S'S48'
p4793
I0
I1
tp4794
Rp4795
(I3
S'|'
p4796
NNNI48
I1
I0
tp4797
bS'Contraceptive prevalence (% of women ages 15-49)'
p4798
tp4799
Rp4800
(lp4801
(lp4802
tp4803
a(g1
(g2
(S'S10'
p4804
I0
I1
tp4805
Rp4806
(I3
S'|'
p4807
NNNI10
I1
I0
tp4808
bS'Madagascar'
p4809
tp4810
Rp4811
g1
(g2
(S'S48'
p4812
I0
I1
tp4813
Rp4814
(I3
S'|'
p4815
NNNI48
I1
I0
tp4816
bS'Contraceptive prevalence (% of women ages 15-49)'
p4817
tp4818
Rp4819
(lp4820
g1
(g41
S'\x00\x00\x00\x00\xb0r\xfb@'
p4821
tp4822
Rp4823
ag1
(g41
S'\x00\x00\x00\x00X\x80\x01A'
p4824
tp4825
Rp4826
ag1
(g41
S'\x00\x00\x00\x00\xb0%\x00A'
p4827
tp4828
Rp4829
ag1
(g41
S'\x00\x00\x00\x00(9\x01A'
p4830
tp4831
Rp4832
ag1
(g41
S'!\xb0rhz4\x02A'
p4833
tp4834
Rp4835
ag1
(g41
S'V}\xae\x96\x03\x92\x03A'
p4836
tp4837
Rp4838
ag1
(g41
S'\xd9\x8b\xb2\x1c\xce\x1d\x05A'
p4839
tp4840
Rp4841
a(lp4842
I2008
aI2009
aI2010
aI2011
aI2012
aI2013
aI2014
atp4843
a(g1
(g2
(S'S6'
p4844
I0
I1
tp4845
Rp4846
(I3
S'|'
p4847
NNNI6
I1
I0
tp4848
bS'Malawi'
p4849
tp4850
Rp4851
g1
(g2
(S'S48'
p4852
I0
I1
tp4853
Rp4854
(I3
S'|'
p4855
NNNI48
I1
I0
tp4856
bS'Contraceptive prevalence (% of women ages 15-49)'
p4857
tp4858
Rp4859
(lp4860
(lp4861
tp4862
a(g1
(g2
(S'S8'
p4863
I0
I1
tp4864
Rp4865
(I3
S'|'
p4866
NNNI8
I1
I0
tp4867
bS'Malaysia'
p4868
tp4869
Rp4870
g1
(g2
(S'S48'
p4871
I0
I1
tp4872
Rp4873
(I3
S'|'
p4874
NNNI48
I1
I0
tp4875
bS'Contraceptive prevalence (% of women ages 15-49)'
p4876
tp4877
Rp4878
(lp4879
g1
(g41
S'\x00\x00\x00\x00\x9f\xb5QA'
p4880
tp4881
Rp4882
ag1
(g41
S'\x00\x00\x00@\x04\xbfWA'
p4883
tp4884
Rp4885
ag1
(g41
S'\x00\x00\x00@:\xb1`A'
p4886
tp4887
Rp4888
ag1
(g41
S'\x00\x00\x00 lycA'
p4889
tp4890
Rp4891
ag1
(g41
S'\x00\x00\x00`\x92\xf4eA'
p4892
tp4893
Rp4894
ag1
(g41
S'\x00\x00\x00\xc0\xeeCgA'
p4895
tp4896
Rp4897
ag1
(g41
S'\x00\x00\x00\xa0E\x98iA'
p4898
tp4899
Rp4900
ag1
(g41
S'\x00\x00\x00\x80\xa4HlA'
p4901
tp4902
Rp4903
ag1
(g41
S'\xfb\xcb\xee)`\xb2nA'
p4904
tp4905
Rp4906
ag1
(g41
S'9j\xbb\xf4\xcd^nA'
p4907
tp4908
Rp4909
ag1
(g41
S'\x83\xc0\xca5\xd5kqA'
p4910
tp4911
Rp4912
ag1
(g41
S'\xfd\xa0\xaef\xd74sA'
p4913
tp4914
Rp4915
ag1
(g41
S'\xdd\xd9M2\xff\xedsA'
p4916
tp4917
Rp4918
ag1
(g41
S' Nvi&otA'
p4919
tp4920
Rp4921
a(lp4922
I2001
aI2002
aI2003
aI2004
aI2005
aI2006
aI2007
aI2008
aI2009
aI2010
aI2011
aI2012
aI2013
aI2014
atp4923
a(g1
(g2
(S'S8'
p4924
I0
I1
tp4925
Rp4926
(I3
S'|'
p4927
NNNI8
I1
I0
tp4928
bS'Maldives'
p4929
tp4930
Rp4931
g1
(g2
(S'S48'
p4932
I0
I1
tp4933
Rp4934
(I3
S'|'
p4935
NNNI48
I1
I0
tp4936
bS'Contraceptive prevalence (% of women ages 15-49)'
p4937
tp4938
Rp4939
(lp4940
g1
(g41
S'\x00\x00\x00\x00\xe0J\xe7@'
p4941
tp4942
Rp4943
ag1
(g41
S'\x00\x00\x00\x00@2\xea@'
p4944
tp4945
Rp4946
ag1
(g41
S'\x00\x00\x00\x00\x00X\xeb@'
p4947
tp4948
Rp4949
ag1
(g41
S'\x00\x00\x00\x00\x00\xbf\xef@'
p4950
tp4951
Rp4952
ag1
(g41
S'\xdfO\x8d\x97\x1e\xc7\xf0@'
p4953
tp4954
Rp4955
ag1
(g41
S'C\x1c\xeb\xe2@\t\xf2@'
p4956
tp4957
Rp4958
ag1
(g41
S'\xe7\xcfm8\x04v\xf3@'
p4959
tp4960
Rp4961
a(lp4962
I2008
aI2009
aI2010
aI2011
aI2012
aI2013
aI2014
atp4963
a(g1
(g2
(S'S4'
p4964
I0
I1
tp4965
Rp4966
(I3
S'|'
p4967
NNNI4
I1
I0
tp4968
bS'Mali'
p4969
tp4970
Rp4971
g1
(g2
(S'S48'
p4972
I0
I1
tp4973
Rp4974
(I3
S'|'
p4975
NNNI48
I1
I0
tp4976
bS'Contraceptive prevalence (% of women ages 15-49)'
p4977
tp4978
Rp4979
(lp4980
(lp4981
tp4982
a(g1
(g2
(S'S5'
p4983
I0
I1
tp4984
Rp4985
(I3
S'|'
p4986
NNNI5
I1
I0
tp4987
bS'Malta'
p4988
tp4989
Rp4990
g1
(g2
(S'S48'
p4991
I0
I1
tp4992
Rp4993
(I3
S'|'
p4994
NNNI48
I1
I0
tp4995
bS'Contraceptive prevalence (% of women ages 15-49)'
p4996
tp4997
Rp4998
(lp4999
g1
(g41
S'\x00\x00\x00\x00{\x830A'
p5000
tp5001
Rp5002
ag1
(g41
S'\x00\x00\x00\x00\x04f2A'
p5003
tp5004
Rp5005
ag1
(g41
S'\x00\x00\x00\x00L\xaa3A'
p5006
tp5007
Rp5008
ag1
(g41
S'\x00\x00\x00\x00\xd3\x8f4A'
p5009
tp5010
Rp5011
ag1
(g41
S'\x00\x00\x00\x00t.7A'
p5012
tp5013
Rp5014
ag1
(g41
S'\x00\x00\x00\x00\n\x185A'
p5015
tp5016
Rp5017
ag1
(g41
S'\x00\x00\x00\x00\xf8c7A'
p5018
tp5019
Rp5020
ag1
(g41
S'\x00\x00\x00\x00,\xdc=A'
p5021
tp5022
Rp5023
ag1
(g41
S'\x00\x00\x00\x00\xd2]BA'
p5024
tp5025
Rp5026
ag1
(g41
S'\x00\x00\x00\x80\xf2\xbaAA'
p5027
tp5028
Rp5029
ag1
(g41
S'\x00\x00\x00\x80t\xb2BA'
p5030
tp5031
Rp5032
ag1
(g41
S'\x04V\x0e\xadZ\xa7BA'
p5033
tp5034
Rp5035
ag1
(g41
S'x\x9c\xa2\xa3V\x12DA'
p5036
tp5037
Rp5038
ag1
(g41
S'\xafbLe\x82\xbaEA'
p5039
tp5040
Rp5041
a(lp5042
I2001
aI2002
aI2003
aI2004
aI2005
aI2006
aI2007
aI2008
aI2009
aI2010
aI2011
aI2012
aI2013
aI2014
atp5043
a(g1
(g2
(S'S16'
p5044
I0
I1
tp5045
Rp5046
(I3
S'|'
p5047
NNNI16
I1
I0
tp5048
bS'Marshall Islands'
p5049
tp5050
Rp5051
g1
(g2
(S'S48'
p5052
I0
I1
tp5053
Rp5054
(I3
S'|'
p5055
NNNI48
I1
I0
tp5056
bS'Contraceptive prevalence (% of women ages 15-49)'
p5057
tp5058
Rp5059
(lp5060
(lp5061
tp5062
a(g1
(g2
(S'S10'
p5063
I0
I1
tp5064
Rp5065
(I3
S'|'
p5066
NNNI10
I1
I0
tp5067
bS'Mauritania'
p5068
tp5069
Rp5070
g1
(g2
(S'S48'
p5071
I0
I1
tp5072
Rp5073
(I3
S'|'
p5074
NNNI48
I1
I0
tp5075
bS'Contraceptive prevalence (% of women ages 15-49)'
p5076
tp5077
Rp5078
(lp5079
g1
(g41
S'\x00\x00\x00\x00\xc0\x10\xec@'
p5080
tp5081
Rp5082
ag1
(g41
S'\x00\x00\x00\x00\xa0g\xee@'
p5083
tp5084
Rp5085
ag1
(g41
S'\x00\x00\x00\x00\x90\n\xf0@'
p5086
tp5087
Rp5088
ag1
(g41
S'\\\x8f\xc2\xf5\xa2\xf4\xf0@'
p5089
tp5090
Rp5091
ag1
(g41
S'P\x8d\x97./:\xf2@'
p5092
tp5093
Rp5094
ag1
(g41
S'\xe0\x9e\xe7\x17\xd0\xaa\xf3@'
p5095
tp5096
Rp5097
a(lp5098
I2009
aI2010
aI2011
aI2012
aI2013
aI2014
atp5099
a(g1
(g2
(S'S9'
p5100
I0
I1
tp5101
Rp5102
(I3
S'|'
p5103
NNNI9
I1
I0
tp5104
bS'Mauritius'
p5105
tp5106
Rp5107
g1
(g2
(S'S48'
p5108
I0
I1
tp5109
Rp5110
(I3
S'|'
p5111
NNNI48
I1
I0
tp5112
bS'Contraceptive prevalence (% of women ages 15-49)'
p5113
tp5114
Rp5115
(lp5116
g1
(g41
S'\x00\x00\x00\x00 1\x08A'
p5117
tp5118
Rp5119
ag1
(g41
S'\x00\x00\x00\x00xH\x17A'
p5120
tp5121
Rp5122
ag1
(g41
S'\x00\x00\x00\x00\x803\x19A'
p5123
tp5124
Rp5125
ag1
(g41
S'\x00\x00\x00\x00\x84\xbc\x1bA'
p5126
tp5127
Rp5128
ag1
(g41
S'\x00\x00\x00\x008\xd5\x18A'
p5129
tp5130
Rp5131
ag1
(g41
S'\x00\x00\x00\x00\xd8M\x14A'
p5132
tp5133
Rp5134
ag1
(g41
S'\x00\x00\x00\x00l>\x1cA'
p5135
tp5136
Rp5137
ag1
(g41
S'\x00\x00\x00\x00\xfe\x96!A'
p5138
tp5139
Rp5140
ag1
(g41
S'\x06\x81\x95\x83\xba\xfa"A'
p5141
tp5142
Rp5143
a(lp5144
I2003
aI2004
aI2008
aI2009
aI2010
aI2011
aI2012
aI2013
aI2014
atp5145
a(g1
(g2
(S'S6'
p5146
I0
I1
tp5147
Rp5148
(I3
S'|'
p5149
NNNI6
I1
I0
tp5150
bS'Mexico'
p5151
tp5152
Rp5153
g1
(g2
(S'S48'
p5154
I0
I1
tp5155
Rp5156
(I3
S'|'
p5157
NNNI48
I1
I0
tp5158
bS'Contraceptive prevalence (% of women ages 15-49)'
p5159
tp5160
Rp5161
(lp5162
g1
(g41
S'\x00\x00\x00\x00u\x134A'
p5163
tp5164
Rp5165
ag1
(g41
S'\x00\x00\x00\x008\xb94A'
p5166
tp5167
Rp5168
ag1
(g41
S'\x00\x00\x00\x00|\xdf7A'
p5169
tp5170
Rp5171
ag1
(g41
S'\x00\x00\x00\x00_\xd89A'
p5172
tp5173
Rp5174
ag1
(g41
S'\x00\x00\x00\x00\xf1\n=A'
p5175
tp5176
Rp5177
ag1
(g41
S'\x00\x00\x00\x80,\\@A'
p5178
tp5179
Rp5180
ag1
(g41
S'\x00\x00\x00\x00\x1bsDA'
p5181
tp5182
Rp5183
ag1
(g41
S'\x00\x00\x00\x00hY9A'
p5184
tp5185
Rp5186
ag1
(g41
S'HP\xfc\x98&FIA'
p5187
tp5188
Rp5189
ag1
(g41
S'q\x1b\rP\xe4\xedEA'
p5190
tp5191
Rp5192
ag1
(g41
S'}(,\x1e\xc2.LA'
p5193
tp5194
Rp5195
ag1
(g41
S'\xddh\xfaS\xc2!PA'
p5196
tp5197
Rp5198
ag1
(g41
S'T\xcaF\xf2\xe1NRA'
p5199
tp5200
Rp5201
ag1
(g41
S'\xec\xdd@\xe7j\xb1RA'
p5202
tp5203
Rp5204
a(lp5205
I2001
aI2002
aI2003
aI2004
aI2005
aI2006
aI2007
aI2008
aI2009
aI2010
aI2011
aI2012
aI2013
aI2014
atp5206
a(g1
(g2
(S'S46'
p5207
I0
I1
tp5208
Rp5209
(I3
S'|'
p5210
NNNI46
I1
I0
tp5211
bS'Middle East & North Africa (all income levels)'
p5212
tp5213
Rp5214
g1
(g2
(S'S48'
p5215
I0
I1
tp5216
Rp5217
(I3
S'|'
p5218
NNNI48
I1
I0
tp5219
bS'Contraceptive prevalence (% of women ages 15-49)'
p5220
tp5221
Rp5222
(lp5223
g1
(g41
S'\x00\x00\x00PoM\x81A'
p5224
tp5225
Rp5226
ag1
(g41
S'd\xcc]\xe7K\x06\x84A'
p5227
tp5228
Rp5229
ag1
(g41
S'\xc0\xae\x96\n|I\x84A'
p5230
tp5231
Rp5232
ag1
(g41
S'r\xcc\xe8t\xa7.\x86A'
p5233
tp5234
Rp5235
ag1
(g41
S'h\xe6\xee\xbdZ,\x88A'
p5236
tp5237
Rp5238
ag1
(g41
S'L\xd1`\x14\xb8B\x89A'
p5239
tp5240
Rp5241
ag1
(g41
S'\x13\xd3\x85\x01O\x9a\x8aA'
p5242
tp5243
Rp5244
a(lp5245
I2008
aI2009
aI2010
aI2011
aI2012
aI2013
aI2014
atp5246
a(g1
(g2
(S'S44'
p5247
I0
I1
tp5248
Rp5249
(I3
S'|'
p5250
NNNI44
I1
I0
tp5251
bS'Middle East & North Africa (developing only)'
p5252
tp5253
Rp5254
g1
(g2
(S'S48'
p5255
I0
I1
tp5256
Rp5257
(I3
S'|'
p5258
NNNI48
I1
I0
tp5259
bS'Contraceptive prevalence (% of women ages 15-49)'
p5260
tp5261
Rp5262
(lp5263
g1
(g41
S'\x00\x00\x00`\x06?dA'
p5264
tp5265
Rp5266
ag1
(g41
S'\x901w]k\xdahA'
p5267
tp5268
Rp5269
ag1
(g41
S'\x02\xbbZ*\xf0\xbdjA'
p5270
tp5271
Rp5272
ag1
(g41
S'\xd53\xce*\x97\x17nA'
p5273
tp5274
Rp5275
ag1
(g41
S'\tD\x99\x93\xe9upA'
p5276
tp5277
Rp5278
ag1
(g41
S'\x8f\x8f\x11\xef5KpA'
p5279
tp5280
Rp5281
ag1
(g41
S'#\xda\xae\x01\xd7\x8bqA'
p5282
tp5283
Rp5284
a(lp5285
I2008
aI2009
aI2010
aI2011
aI2012
aI2013
aI2014
atp5286
a(g1
(g2
(S'S13'
p5287
I0
I1
tp5288
Rp5289
(I3
S'|'
p5290
NNNI13
I1
I0
tp5291
bS'Middle income'
p5292
tp5293
Rp5294
g1
(g2
(S'S48'
p5295
I0
I1
tp5296
Rp5297
(I3
S'|'
p5298
NNNI48
I1
I0
tp5299
bS'Contraceptive prevalence (% of women ages 15-49)'
p5300
tp5301
Rp5302
(lp5303
g1
(g41
S'\x00\x00\x00\xd4\x18\xb0\x92A'
p5304
tp5305
Rp5306
ag1
(g41
S'\x00\x00\x00\x88\xcc~\x94A'
p5307
tp5308
Rp5309
ag1
(g41
S'\x00\x00\x00P\xcdS\x98A'
p5310
tp5311
Rp5312
ag1
(g41
S'\x00\x00\x00\xb4\x9c\xf3\x9bA'
p5313
tp5314
Rp5315
ag1
(g41
S'\x00\x00\x00r$\x8b\xa0A'
p5316
tp5317
Rp5318
ag1
(g41
S'\x00\x00\x00\xf6\xfb^\xa0A'
p5319
tp5320
Rp5321
ag1
(g41
S'\x00\x00\x00\x9e\xb5i\xa3A'
p5322
tp5323
Rp5324
ag1
(g41
S'\x00\x00\x00\xee\x1a\x07\xa8A'
p5325
tp5326
Rp5327
ag1
(g41
S'\xbct\x93\x82)\xd7\xaaA'
p5328
tp5329
Rp5330
ag1
(g41
S'8\xd70\x1b\x0b\x90\xa9A'
p5331
tp5332
Rp5333
ag1
(g41
S"\tn\xac\x85'*\xaeA"
p5334
tp5335
Rp5336
ag1
(g41
S'\x0ba\xbd\xdc,\xac\xb0A'
p5337
tp5338
Rp5339
ag1
(g41
S'\x96ZO\xd6p\xb2\xb1A'
p5340
tp5341
Rp5342
ag1
(g41
S'\xe5\n3\x97\xe4T\xb3A'
p5343
tp5344
Rp5345
a(lp5346
I2001
aI2002
aI2003
aI2004
aI2005
aI2006
aI2007
aI2008
aI2009
aI2010
aI2011
aI2012
aI2013
aI2014
atp5347
a(g1
(g2
(S'S7'
p5348
I0
I1
tp5349
Rp5350
(I3
S'|'
p5351
NNNI7
I1
I0
tp5352
bS'Moldova'
p5353
tp5354
Rp5355
g1
(g2
(S'S48'
p5356
I0
I1
tp5357
Rp5358
(I3
S'|'
p5359
NNNI48
I1
I0
tp5360
bS'Contraceptive prevalence (% of women ages 15-49)'
p5361
tp5362
Rp5363
(lp5364
(lp5365
tp5366
a(g1
(g2
(S'S6'
p5367
I0
I1
tp5368
Rp5369
(I3
S'|'
p5370
NNNI6
I1
I0
tp5371
bS'Monaco'
p5372
tp5373
Rp5374
g1
(g2
(S'S48'
p5375
I0
I1
tp5376
Rp5377
(I3
S'|'
p5378
NNNI48
I1
I0
tp5379
bS'Contraceptive prevalence (% of women ages 15-49)'
p5380
tp5381
Rp5382
(lp5383
(lp5384
tp5385
a(g1
(g2
(S'S8'
p5386
I0
I1
tp5387
Rp5388
(I3
S'|'
p5389
NNNI8
I1
I0
tp5390
bS'Mongolia'
p5391
tp5392
Rp5393
g1
(g2
(S'S48'
p5394
I0
I1
tp5395
Rp5396
(I3
S'|'
p5397
NNNI48
I1
I0
tp5398
bS'Contraceptive prevalence (% of women ages 15-49)'
p5399
tp5400
Rp5401
(lp5402
(lp5403
tp5404
a(g1
(g2
(S'S10'
p5405
I0
I1
tp5406
Rp5407
(I3
S'|'
p5408
NNNI10
I1
I0
tp5409
bS'Montenegro'
p5410
tp5411
Rp5412
g1
(g2
(S'S48'
p5413
I0
I1
tp5414
Rp5415
(I3
S'|'
p5416
NNNI48
I1
I0
tp5417
bS'Contraceptive prevalence (% of women ages 15-49)'
p5418
tp5419
Rp5420
(lp5421
(lp5422
tp5423
a(g1
(g2
(S'S7'
p5424
I0
I1
tp5425
Rp5426
(I3
S'|'
p5427
NNNI7
I1
I0
tp5428
bS'Morocco'
p5429
tp5430
Rp5431
g1
(g2
(S'S48'
p5432
I0
I1
tp5433
Rp5434
(I3
S'|'
p5435
NNNI48
I1
I0
tp5436
bS'Contraceptive prevalence (% of women ages 15-49)'
p5437
tp5438
Rp5439
(lp5440
g1
(g41
S'\x00\x00\x00\x00\xa0\x11\x14A'
p5441
tp5442
Rp5443
ag1
(g41
S'\x00\x00\x00\x00\x90)\x15A'
p5444
tp5445
Rp5446
ag1
(g41
S'\x00\x00\x00\x00\xb4\x96\x1fA'
p5447
tp5448
Rp5449
ag1
(g41
S'\x00\x00\x00\x00T\x1c!A'
p5450
tp5451
Rp5452
ag1
(g41
S'\x00\x00\x00\x00\x80\x0e,A'
p5453
tp5454
Rp5455
ag1
(g41
S'\x00\x00\x00\x00p\xa52A'
p5456
tp5457
Rp5458
ag1
(g41
S'\x00\x00\x00\x00\xbeh?A'
p5459
tp5460
Rp5461
ag1
(g41
S'\x00\x00\x00\x00\xb8\xc8?A'
p5462
tp5463
Rp5464
ag1
(g41
S'\x00\x00\x00\x00@w;A'
p5465
tp5466
Rp5467
ag1
(g41
S'\x00\x00\x00\x00\xd0\x12CA'
p5468
tp5469
Rp5470
a(lp5471
I2001
aI2002
aI2004
aI2005
aI2009
aI2010
aI2011
aI2012
aI2013
aI2014
atp5472
a(g1
(g2
(S'S10'
p5473
I0
I1
tp5474
Rp5475
(I3
S'|'
p5476
NNNI10
I1
I0
tp5477
bS'Mozambique'
p5478
tp5479
Rp5480
g1
(g2
(S'S48'
p5481
I0
I1
tp5482
Rp5483
(I3
S'|'
p5484
NNNI48
I1
I0
tp5485
bS'Contraceptive prevalence (% of women ages 15-49)'
p5486
tp5487
Rp5488
(lp5489
g1
(g41
S'\x00\x00\x00\x00\x18\x8d\tA'
p5490
tp5491
Rp5492
ag1
(g41
S'\x00\x00\x00\x00\xa8r\rA'
p5493
tp5494
Rp5495
ag1
(g41
S'\nh"l\xa7\xc7\nA'
p5496
tp5497
Rp5498
ag1
(g41
S'\x93/\xb2\x0ej\x17\x0fA'
p5499
tp5500
Rp5501
ag1
(g41
S'\xe2\xacS\xea\x8cn\x10A'
p5502
tp5503
Rp5504
ag1
(g41
S'i\xf3\x19\xaf\n\xaa\x11A'
p5505
tp5506
Rp5507
ag1
(g41
S'\x84\x0c\xbetH\x0f\x13A'
p5508
tp5509
Rp5510
a(lp5511
I2008
aI2009
aI2010
aI2011
aI2012
aI2013
aI2014
atp5512
a(g1
(g2
(S'S7'
p5513
I0
I1
tp5514
Rp5515
(I3
S'|'
p5516
NNNI7
I1
I0
tp5517
bS'Myanmar'
p5518
tp5519
Rp5520
g1
(g2
(S'S48'
p5521
I0
I1
tp5522
Rp5523
(I3
S'|'
p5524
NNNI48
I1
I0
tp5525
bS'Contraceptive prevalence (% of women ages 15-49)'
p5526
tp5527
Rp5528
(lp5529
g1
(g41
S'\x00\x00\x00\x00\x80\xc0\x04A'
p5530
tp5531
Rp5532
ag1
(g41
S'\x00\x00\x00\x00\x00\xf9\x05A'
p5533
tp5534
Rp5535
ag1
(g41
S'\x00\x00\x00\x00`\xfb\x03A'
p5536
tp5537
Rp5538
ag1
(g41
S'\xf0\xa7\xc6K\xf32\x07A'
p5539
tp5540
Rp5541
ag1
(g41
S'\xe0+\xbaux\x85\x08A'
p5542
tp5543
Rp5544
ag1
(g41
S'+\xef\xf4\xe4G\\\nA'
p5545
tp5546
Rp5547
ag1
(g41
S'\xf7\xa6B eq\x0cA'
p5548
tp5549
Rp5550
a(lp5551
I2008
aI2009
aI2010
aI2011
aI2012
aI2013
aI2014
atp5552
a(g1
(g2
(S'S7'
p5553
I0
I1
tp5554
Rp5555
(I3
S'|'
p5556
NNNI7
I1
I0
tp5557
bS'Namibia'
p5558
tp5559
Rp5560
g1
(g2
(S'S48'
p5561
I0
I1
tp5562
Rp5563
(I3
S'|'
p5564
NNNI48
I1
I0
tp5565
bS'Contraceptive prevalence (% of women ages 15-49)'
p5566
tp5567
Rp5568
(lp5569
g1
(g41
S'\x00\x00\x00\x00P\x18\x02A'
p5570
tp5571
Rp5572
ag1
(g41
S'\x00\x00\x00\x00\xa8i\x06A'
p5573
tp5574
Rp5575
ag1
(g41
S'\x00\x00\x00\x00\xfc6\x10A'
p5576
tp5577
Rp5578
ag1
(g41
S'\x00\x00\x00\x00\xf8I\x0fA'
p5579
tp5580
Rp5581
ag1
(g41
S'\x00\x00\x00\x00`E\xfa@'
p5582
tp5583
Rp5584
ag1
(g41
S'3333\xc7=\xfc@'
p5585
tp5586
Rp5587
ag1
(g41
S'\xe3\xc7\x98;\xeex\xfe@'
p5588
tp5589
Rp5590
a(lp5591
I2008
aI2009
aI2010
aI2011
aI2012
aI2013
aI2014
atp5592
a(g1
(g2
(S'S5'
p5593
I0
I1
tp5594
Rp5595
(I3
S'|'
p5596
NNNI5
I1
I0
tp5597
bS'Nepal'
p5598
tp5599
Rp5600
g1
(g2
(S'S48'
p5601
I0
I1
tp5602
Rp5603
(I3
S'|'
p5604
NNNI48
I1
I0
tp5605
bS'Contraceptive prevalence (% of women ages 15-49)'
p5606
tp5607
Rp5608
(lp5609
(lp5610
tp5611
a(g1
(g2
(S'S11'
p5612
I0
I1
tp5613
Rp5614
(I3
S'|'
p5615
NNNI11
I1
I0
tp5616
bS'Netherlands'
p5617
tp5618
Rp5619
g1
(g2
(S'S48'
p5620
I0
I1
tp5621
Rp5622
(I3
S'|'
p5623
NNNI48
I1
I0
tp5624
bS'Contraceptive prevalence (% of women ages 15-49)'
p5625
tp5626
Rp5627
(lp5628
g1
(g41
S'\x00\x00\x00\x80\xfepXA'
p5629
tp5630
Rp5631
ag1
(g41
S'\x00\x00\x00@^\xc1WA'
p5632
tp5633
Rp5634
ag1
(g41
S'\x00\x00\x00\x806\xeeYA'
p5635
tp5636
Rp5637
ag1
(g41
S'\x00\x00\x00\x80\xd7\xd2[A'
p5638
tp5639
Rp5640
ag1
(g41
S'\x00\x00\x00\xc0\xb1-`A'
p5641
tp5642
Rp5643
ag1
(g41
S'\x00\x00\x00\xa0\xea\x10bA'
p5644
tp5645
Rp5646
ag1
(g41
S'\x00\x00\x00\xe0\x84)cA'
p5647
tp5648
Rp5649
ag1
(g41
S'\x00\x00\x00\x80\xd2\x88eA'
p5650
tp5651
Rp5652
ag1
(g41
S'\x00\x00\x00 \xe5\xabeA'
p5653
tp5654
Rp5655
ag1
(g41
S'\x00\x00\x00\xc083cA'
p5656
tp5657
Rp5658
ag1
(g41
S'\x00\x00\x00\xe0\xa1\xa3eA'
p5659
tp5660
Rp5661
ag1
(g41
S'{\x14\xae\x07\xdf\x06gA'
p5662
tp5663
Rp5664
ag1
(g41
S'\x9e\xef\xa7\x1aw\x04gA'
p5665
tp5666
Rp5667
ag1
(g41
S'VD\xcd\x1f\xc9\x8ffA'
p5668
tp5669
Rp5670
a(lp5671
I2001
aI2002
aI2003
aI2004
aI2005
aI2006
aI2007
aI2008
aI2009
aI2010
aI2011
aI2012
aI2013
aI2014
atp5672
a(g1
(g2
(S'S13'
p5673
I0
I1
tp5674
Rp5675
(I3
S'|'
p5676
NNNI13
I1
I0
tp5677
bS'New Caledonia'
p5678
tp5679
Rp5680
g1
(g2
(S'S48'
p5681
I0
I1
tp5682
Rp5683
(I3
S'|'
p5684
NNNI48
I1
I0
tp5685
bS'Contraceptive prevalence (% of women ages 15-49)'
p5686
tp5687
Rp5688
(lp5689
g1
(g41
S'\x00\x00\x00\x00PP\xf4@'
p5690
tp5691
Rp5692
ag1
(g41
S'\x00\x00\x00\x00\xd06\xfd@'
p5693
tp5694
Rp5695
ag1
(g41
S'\x00\x00\x00\x00\xb0\x16\xfd@'
p5696
tp5697
Rp5698
ag1
(g41
S'\x00\x00\x00\x00\xe0\x1c\xf6@'
p5699
tp5700
Rp5701
ag1
(g41
S'\x00\x00\x00\x00\xd0B\xf7@'
p5702
tp5703
Rp5704
ag1
(g41
S'ffffl\x01\xf9@'
p5705
tp5706
Rp5707
ag1
(g41
S'R\'\xa0\xc9"\xfb\xfa@'
p5708
tp5709
Rp5710
a(lp5711
I2008
aI2009
aI2010
aI2011
aI2012
aI2013
aI2014
atp5712
a(g1
(g2
(S'S11'
p5713
I0
I1
tp5714
Rp5715
(I3
S'|'
p5716
NNNI11
I1
I0
tp5717
bS'New Zealand'
p5718
tp5719
Rp5720
g1
(g2
(S'S48'
p5721
I0
I1
tp5722
Rp5723
(I3
S'|'
p5724
NNNI48
I1
I0
tp5725
bS'Contraceptive prevalence (% of women ages 15-49)'
p5726
tp5727
Rp5728
(lp5729
g1
(g41
S'\x00\x00\x00\x00\xaeI0A'
p5730
tp5731
Rp5732
ag1
(g41
S'\x00\x00\x00\x00\xc7a1A'
p5733
tp5734
Rp5735
ag1
(g41
S'\x00\x00\x00\x00\x9ax5A'
p5736
tp5737
Rp5738
ag1
(g41
S'\x00\x00\x00\x00\xd037A'
p5739
tp5740
Rp5741
ag1
(g41
S'\x00\x00\x00\x00\xe7*8A'
p5742
tp5743
Rp5744
ag1
(g41
S'\x00\x00\x00\x00{v8A'
p5745
tp5746
Rp5747
ag1
(g41
S'\x00\x00\x00\x00\x04\x91;A'
p5748
tp5749
Rp5750
ag1
(g41
S'\x00\x00\x00\x80\xc8\xa2AA'
p5751
tp5752
Rp5753
ag1
(g41
S'e\x19\xe2\x98\xff\xaeAA'
p5754
tp5755
Rp5756
ag1
(g41
S'q\x7f&\xf1\xf4\xbcAA'
p5757
tp5758
Rp5759
ag1
(g41
S'\xa0nA9\x17\xcbBA'
p5760
tp5761
Rp5762
ag1
(g41
S'sV\x97\xdfp3CA'
p5763
tp5764
Rp5765
ag1
(g41
S'z\x16)]\x00\xdfEA'
p5766
tp5767
Rp5768
ag1
(g41
S'{\x80\x93\x91R\x99GA'
p5769
tp5770
Rp5771
a(lp5772
I2001
aI2002
aI2003
aI2004
aI2005
aI2006
aI2007
aI2008
aI2009
aI2010
aI2011
aI2012
aI2013
aI2014
atp5773
a(g1
(g2
(S'S9'
p5774
I0
I1
tp5775
Rp5776
(I3
S'|'
p5777
NNNI9
I1
I0
tp5778
bS'Nicaragua'
p5779
tp5780
Rp5781
g1
(g2
(S'S48'
p5782
I0
I1
tp5783
Rp5784
(I3
S'|'
p5785
NNNI48
I1
I0
tp5786
bS'Contraceptive prevalence (% of women ages 15-49)'
p5787
tp5788
Rp5789
(lp5790
g1
(g41
S'\x00\x00\x00\x00\xe0\xc9\xed@'
p5791
tp5792
Rp5793
ag1
(g41
S'\x00\x00\x00\x00\xc0\xc6\xee@'
p5794
tp5795
Rp5796
ag1
(g41
S'\x00\x00\x00\x00\xe0\t\xed@'
p5797
tp5798
Rp5799
ag1
(g41
S'`\xe5\xd0"\x13\xbc\xf0@'
p5800
tp5801
Rp5802
ag1
(g41
S'u\x1d\xaa)\x9c\x84\xf4@'
p5803
tp5804
Rp5805
ag1
(g41
S'x\xaccF\x96\xe2\xf6@'
p5806
tp5807
Rp5808
ag1
(g41
S'l\xbd\xb3V\x82\x8d\xf7@'
p5809
tp5810
Rp5811
a(lp5812
I2008
aI2009
aI2010
aI2011
aI2012
aI2013
aI2014
atp5813
a(g1
(g2
(S'S5'
p5814
I0
I1
tp5815
Rp5816
(I3
S'|'
p5817
NNNI5
I1
I0
tp5818
bS'Niger'
p5819
tp5820
Rp5821
g1
(g2
(S'S48'
p5822
I0
I1
tp5823
Rp5824
(I3
S'|'
p5825
NNNI48
I1
I0
tp5826
bS'Contraceptive prevalence (% of women ages 15-49)'
p5827
tp5828
Rp5829
(lp5830
(lp5831
tp5832
a(g1
(g2
(S'S7'
p5833
I0
I1
tp5834
Rp5835
(I3
S'|'
p5836
NNNI7
I1
I0
tp5837
bS'Nigeria'
p5838
tp5839
Rp5840
g1
(g2
(S'S48'
p5841
I0
I1
tp5842
Rp5843
(I3
S'|'
p5844
NNNI48
I1
I0
tp5845
bS'Contraceptive prevalence (% of women ages 15-49)'
p5846
tp5847
Rp5848
(lp5849
g1
(g41
S'\x00\x00\x00\x00|\xf5!A'
p5850
tp5851
Rp5852
ag1
(g41
S'\x00\x00\x00\x00\x88I\x1fA'
p5853
tp5854
Rp5855
ag1
(g41
S'\x00\x00\x00\x00@\xb3\xf1@'
p5856
tp5857
Rp5858
ag1
(g41
S'\x00\x00\x00\x00\x80=\xf5@'
p5859
tp5860
Rp5861
ag1
(g41
S'\x00\x00\x00\x00\xf0\xa8\xf8@'
p5862
tp5863
Rp5864
ag1
(g41
S'\x00\x00\x00\x00\xc6\xa1)A'
p5865
tp5866
Rp5867
ag1
(g41
S'\x00\x00\x00\x00\xde\xc8*A'
p5868
tp5869
Rp5870
ag1
(g41
S'\x00\x00\x00\x00(\xd9.A'
p5871
tp5872
Rp5873
a(lp5874
I2004
aI2005
aI2009
aI2010
aI2011
aI2012
aI2013
aI2014
atp5875
a(g1
(g2
(S'S13'
p5876
I0
I1
tp5877
Rp5878
(I3
S'|'
p5879
NNNI13
I1
I0
tp5880
bS'North America'
p5881
tp5882
Rp5883
g1
(g2
(S'S48'
p5884
I0
I1
tp5885
Rp5886
(I3
S'|'
p5887
NNNI48
I1
I0
tp5888
bS'Contraceptive prevalence (% of women ages 15-49)'
p5889
tp5890
Rp5891
(lp5892
g1
(g41
S'\x00\x00\x00`\x02\xc8}A'
p5893
tp5894
Rp5895
ag1
(g41
S'\x00\x00\x00\xc0\x8c\xcc|A'
p5896
tp5897
Rp5898
ag1
(g41
S'\x00\x00\x00\x80\xc8t\x7fA'
p5899
tp5900
Rp5901
ag1
(g41
S'\x00\x00\x00`\xa9Q\x81A'
p5902
tp5903
Rp5904
ag1
(g41
S'\x00\x00\x00\xf8\xb7\x83\x82A'
p5905
tp5906
Rp5907
ag1
(g41
S'\x00\x00\x00x\xacW\x84A'
p5908
tp5909
Rp5910
ag1
(g41
S'\x00\x00\x00\xc8\xdc\x90\x85A'
p5911
tp5912
Rp5913
ag1
(g41
S'\x00\x00\x00(^|\x87A'
p5914
tp5915
Rp5916
ag1
(g41
S'\x8c\xdbh\x88xy\x86A'
p5917
tp5918
Rp5919
ag1
(g41
S'5^\xba\xb7m\xcf\x83A'
p5920
tp5921
Rp5922
ag1
(g41
S'7U\xd7\xbc\xba}\x86A'
p5923
tp5924
Rp5925
ag1
(g41
S'\xd9Cf\xcd\xd6\xcd\x86A'
p5926
tp5927
Rp5928
ag1
(g41
S'\\\xef\xcd\xa4S\x9c\x87A'
p5929
tp5930
Rp5931
ag1
(g41
S'\xa4R\x8c\xd9l\xab\x87A'
p5932
tp5933
Rp5934
a(lp5935
I2001
aI2002
aI2003
aI2004
aI2005
aI2006
aI2007
aI2008
aI2009
aI2010
aI2011
aI2012
aI2013
aI2014
atp5936
a(g1
(g2
(S'S24'
p5937
I0
I1
tp5938
Rp5939
(I3
S'|'
p5940
NNNI24
I1
I0
tp5941
bS'Northern Mariana Islands'
p5942
tp5943
Rp5944
g1
(g2
(S'S48'
p5945
I0
I1
tp5946
Rp5947
(I3
S'|'
p5948
NNNI48
I1
I0
tp5949
bS'Contraceptive prevalence (% of women ages 15-49)'
p5950
tp5951
Rp5952
(lp5953
(lp5954
tp5955
a(g1
(g2
(S'S6'
p5956
I0
I1
tp5957
Rp5958
(I3
S'|'
p5959
NNNI6
I1
I0
tp5960
bS'Norway'
p5961
tp5962
Rp5963
g1
(g2
(S'S48'
p5964
I0
I1
tp5965
Rp5966
(I3
S'|'
p5967
NNNI48
I1
I0
tp5968
bS'Contraceptive prevalence (% of women ages 15-49)'
p5969
tp5970
Rp5971
(lp5972
g1
(g41
S'\x00\x00\x00\x00 \x11\x14A'
p5973
tp5974
Rp5975
ag1
(g41
S'\x00\x00\x00\x00\xb84\x14A'
p5976
tp5977
Rp5978
ag1
(g41
S'\x00\x00\x00\x000w\x13A'
p5979
tp5980
Rp5981
ag1
(g41
S'\x00\x00\x00\x00\xe41\x14A'
p5982
tp5983
Rp5984
ag1
(g41
S'\n\xd7\xa3p\xaf\x10\x15A'
p5985
tp5986
Rp5987
ag1
(g41
S'\x91\xed|\xff\xb2R\x15A'
p5988
tp5989
Rp5990
ag1
(g41
S'L\xa9K\xee\xea\x02\x16A'
p5991
tp5992
Rp5993
a(lp5994
I2008
aI2009
aI2010
aI2011
aI2012
aI2013
aI2014
atp5995
a(g1
(g2
(S'S14'
p5996
I0
I1
tp5997
Rp5998
(I3
S'|'
p5999
NNNI14
I1
I0
tp6000
bS'Not classified'
p6001
tp6002
Rp6003
g1
(g2
(S'S48'
p6004
I0
I1
tp6005
Rp6006
(I3
S'|'
p6007
NNNI48
I1
I0
tp6008
bS'Contraceptive prevalence (% of women ages 15-49)'
p6009
tp6010
Rp6011
(lp6012
(lp6013
tp6014
a(g1
(g2
(S'S12'
p6015
I0
I1
tp6016
Rp6017
(I3
S'|'
p6018
NNNI12
I1
I0
tp6019
bS'OECD members'
p6020
tp6021
Rp6022
g1
(g2
(S'S48'
p6023
I0
I1
tp6024
Rp6025
(I3
S'|'
p6026
NNNI48
I1
I0
tp6027
bS'Contraceptive prevalence (% of women ages 15-49)'
p6028
tp6029
Rp6030
(lp6031
g1
(g41
S'\x00\x00\x00\xe4w\xdf\x99A'
p6032
tp6033
Rp6034
ag1
(g41
S'\x00\x00\x00\x14\xdc\x8d\x9aA'
p6035
tp6036
Rp6037
ag1
(g41
S'\x00\x00\x00\xb0\xc1R\x9dA'
p6038
tp6039
Rp6040
ag1
(g41
S'\x00\x00\x00\xd0\x1c\t\xa0A'
p6041
tp6042
Rp6043
ag1
(g41
S'\x00\x00\x00\x0c\xcf\xe8\xa1A'
p6044
tp6045
Rp6046
ag1
(g41
S'\x00\x00\x00\x1e\xbe\r\xa3A'
p6047
tp6048
Rp6049
ag1
(g41
S'\x00\x00\x00\x02\xd0R\xa4A'
p6050
tp6051
Rp6052
ag1
(g41
S'\x00\x00\x00\x98\xf0\xca\xa6A'
p6053
tp6054
Rp6055
ag1
(g41
S'\xf7\x06_\xfa,\xd2\xa6A'
p6056
tp6057
Rp6058
ag1
(g41
S'Y\xf82\xf6O(\xa4A'
p6059
tp6060
Rp6061
ag1
(g41
S'6\x01\xee\xa1\xe3\xc2\xa6A'
p6062
tp6063
Rp6064
ag1
(g41
S'\xa4\xe0\xc9\xdd\xdf^\xa8A'
p6065
tp6066
Rp6067
ag1
(g41
S'e\xa5\x89\n\xe4\x83\xa9A'
p6068
tp6069
Rp6070
ag1
(g41
S'H\xc2\x8e\xed`\x14\xaaA'
p6071
tp6072
Rp6073
a(lp6074
I2001
aI2002
aI2003
aI2004
aI2005
aI2006
aI2007
aI2008
aI2009
aI2010
aI2011
aI2012
aI2013
aI2014
atp6075
a(g1
(g2
(S'S4'
p6076
I0
I1
tp6077
Rp6078
(I3
S'|'
p6079
NNNI4
I1
I0
tp6080
bS'Oman'
p6081
tp6082
Rp6083
g1
(g2
(S'S48'
p6084
I0
I1
tp6085
Rp6086
(I3
S'|'
p6087
NNNI48
I1
I0
tp6088
bS'Contraceptive prevalence (% of women ages 15-49)'
p6089
tp6090
Rp6091
(lp6092
g1
(g41
S'\x00\x00\x00\x00M\xb91A'
p6093
tp6094
Rp6095
ag1
(g41
S'\x00\x00\x00\x00\xe6Q4A'
p6096
tp6097
Rp6098
ag1
(g41
S'\x00\x00\x00\x00L\x995A'
p6099
tp6100
Rp6101
ag1
(g41
S'\x00\x00\x00\x00}GAA'
p6102
tp6103
Rp6104
ag1
(g41
S'\x00\x00\x00\x00-1CA'
p6105
tp6106
Rp6107
ag1
(g41
S'\x00\x00\x00\x00T\xf8DA'
p6108
tp6109
Rp6110
ag1
(g41
S'\x00\x00\x00\x80\xe5\xfdCA'
p6111
tp6112
Rp6113
ag1
(g41
S'\x00\x00\x00\x80\x14\xf3EA'
p6114
tp6115
Rp6116
ag1
(g41
S"\x00\x00\x00\x00K'JA"
p6117
tp6118
Rp6119
ag1
(g41
S'\x00\x00\x00\x80v\xbfLA'
p6120
tp6121
Rp6122
ag1
(g41
S'\x00\x00\x00\x00\xe7\xb3MA'
p6123
tp6124
Rp6125
ag1
(g41
S'b\x10X9\x96\xb7KA'
p6126
tp6127
Rp6128
ag1
(g41
S'\xd0D\xd80\xc2\xcaOA'
p6129
tp6130
Rp6131
ag1
(g41
S'\x8e\xac\xa1qJ\xfcMA'
p6132
tp6133
Rp6134
a(lp6135
I2001
aI2002
aI2003
aI2004
aI2005
aI2006
aI2007
aI2008
aI2009
aI2010
aI2011
aI2012
aI2013
aI2014
atp6136
a(g1
(g2
(S'S18'
p6137
I0
I1
tp6138
Rp6139
(I3
S'|'
p6140
NNNI18
I1
I0
tp6141
bS'Other small states'
p6142
tp6143
Rp6144
g1
(g2
(S'S48'
p6145
I0
I1
tp6146
Rp6147
(I3
S'|'
p6148
NNNI48
I1
I0
tp6149
bS'Contraceptive prevalence (% of women ages 15-49)'
p6150
tp6151
Rp6152
(lp6153
(lp6154
tp6155
a(g1
(g2
(S'S27'
p6156
I0
I1
tp6157
Rp6158
(I3
S'|'
p6159
NNNI27
I1
I0
tp6160
bS'Pacific island small states'
p6161
tp6162
Rp6163
g1
(g2
(S'S48'
p6164
I0
I1
tp6165
Rp6166
(I3
S'|'
p6167
NNNI48
I1
I0
tp6168
bS'Contraceptive prevalence (% of women ages 15-49)'
p6169
tp6170
Rp6171
(lp6172
(lp6173
tp6174
a(g1
(g2
(S'S8'
p6175
I0
I1
tp6176
Rp6177
(I3
S'|'
p6178
NNNI8
I1
I0
tp6179
bS'Pakistan'
p6180
tp6181
Rp6182
g1
(g2
(S'S48'
p6183
I0
I1
tp6184
Rp6185
(I3
S'|'
p6186
NNNI48
I1
I0
tp6187
bS'Contraceptive prevalence (% of women ages 15-49)'
p6188
tp6189
Rp6190
(lp6191
g1
(g41
S'\x00\x00\x00\x00X\xd2*A'
p6192
tp6193
Rp6194
ag1
(g41
S'\x00\x00\x00\x00\xce\x08(A'
p6195
tp6196
Rp6197
ag1
(g41
S'\x00\x00\x00\x00}^3A'
p6198
tp6199
Rp6200
ag1
(g41
S'\x00\x00\x00\x00S\xbb9A'
p6201
tp6202
Rp6203
ag1
(g41
S'\x00\x00\x00\x00+\x1d;A'
p6204
tp6205
Rp6206
ag1
(g41
S'\x00\x00\x00\x00\n\x8a=A'
p6207
tp6208
Rp6209
ag1
(g41
S'\x00\x00\x00\x00Q\x92=A'
p6210
tp6211
Rp6212
ag1
(g41
S'\x00\x00\x00\x00Hg?A'
p6213
tp6214
Rp6215
ag1
(g41
S'\x00\x00\x00\x00De@A'
p6216
tp6217
Rp6218
ag1
(g41
S'\x00\x00\x00\x80\xfd\xbb@A'
p6219
tp6220
Rp6221
ag1
(g41
S'\xcd\xcc\xcc\x1c\xfb\x1eBA'
p6222
tp6223
Rp6224
ag1
(g41
S']m\xc5\xdcu\x8dCA'
p6225
tp6226
Rp6227
a(lp6228
I2002
aI2004
aI2005
aI2006
aI2007
aI2008
aI2009
aI2010
aI2011
aI2012
aI2013
aI2014
atp6229
a(g1
(g2
(S'S5'
p6230
I0
I1
tp6231
Rp6232
(I3
S'|'
p6233
NNNI5
I1
I0
tp6234
bS'Palau'
p6235
tp6236
Rp6237
g1
(g2
(S'S48'
p6238
I0
I1
tp6239
Rp6240
(I3
S'|'
p6241
NNNI48
I1
I0
tp6242
bS'Contraceptive prevalence (% of women ages 15-49)'
p6243
tp6244
Rp6245
(lp6246
(lp6247
tp6248
a(g1
(g2
(S'S6'
p6249
I0
I1
tp6250
Rp6251
(I3
S'|'
p6252
NNNI6
I1
I0
tp6253
bS'Panama'
p6254
tp6255
Rp6256
g1
(g2
(S'S48'
p6257
I0
I1
tp6258
Rp6259
(I3
S'|'
p6260
NNNI48
I1
I0
tp6261
bS'Contraceptive prevalence (% of women ages 15-49)'
p6262
tp6263
Rp6264
(lp6265
g1
(g41
S'\x00\x00\x00\x80H\x14BA'
p6266
tp6267
Rp6268
ag1
(g41
S'\x00\x00\x00\x80\xb6 BA'
p6269
tp6270
Rp6271
ag1
(g41
S'\x00\x00\x00\x00\x16\x854A'
p6272
tp6273
Rp6274
ag1
(g41
S'\x00\x00\x00\x00\xebc>A'
p6275
tp6276
Rp6277
ag1
(g41
S'\x00\x00\x00\x00\xad\x87BA'
p6278
tp6279
Rp6280
ag1
(g41
S'\x00\x00\x00\x00\x0c`GA'
p6281
tp6282
Rp6283
ag1
(g41
S'\x00\x00\x00\x00\xa6\x19GA'
p6284
tp6285
Rp6286
ag1
(g41
S'\x00\x00\x00\x80x\xb0NA'
p6287
tp6288
Rp6289
ag1
(g41
S'\x00\x00\x00\xc0F\x91SA'
p6290
tp6291
Rp6292
ag1
(g41
S'\x00\x00\x00\x00^\x89QA'
p6293
tp6294
Rp6295
ag1
(g41
S'}?5~\x98\xe6VA'
p6296
tp6297
Rp6298
ag1
(g41
S':\xe8\x122W]ZA'
p6299
tp6300
Rp6301
ag1
(g41
S'\xa5\xb9:\x8c\xa0\x88[A'
p6302
tp6303
Rp6304
ag1
(g41
S'\xe9!\xe0\xdc#i\\A'
p6305
tp6306
Rp6307
a(lp6308
I2001
aI2002
aI2003
aI2004
aI2005
aI2006
aI2007
aI2008
aI2009
aI2010
aI2011
aI2012
aI2013
aI2014
atp6309
a(g1
(g2
(S'S16'
p6310
I0
I1
tp6311
Rp6312
(I3
S'|'
p6313
NNNI16
I1
I0
tp6314
bS'Papua New Guinea'
p6315
tp6316
Rp6317
g1
(g2
(S'S48'
p6318
I0
I1
tp6319
Rp6320
(I3
S'|'
p6321
NNNI48
I1
I0
tp6322
bS'Contraceptive prevalence (% of women ages 15-49)'
p6323
tp6324
Rp6325
(lp6326
g1
(g41
S'\x00\x00\x00\x00\xd0;\x11A'
p6327
tp6328
Rp6329
ag1
(g41
S'\x00\x00\x00\x00\x00\x14\x0fA'
p6330
tp6331
Rp6332
ag1
(g41
S'\x00\x00\x00\x00\x04\x01\x10A'
p6333
tp6334
Rp6335
ag1
(g41
S'\x14\xaeGa\xd9\x05\x12A'
p6336
tp6337
Rp6338
ag1
(g41
S'\xb7\x0b\xcd\x85\xf7#\x13A'
p6339
tp6340
Rp6341
ag1
(g41
S'e9\t\xe3v\x93\x14A'
p6342
tp6343
Rp6344
ag1
(g41
S'\x1a{@\x16\x983\x16A'
p6345
tp6346
Rp6347
a(lp6348
I2008
aI2009
aI2010
aI2011
aI2012
aI2013
aI2014
atp6349
a(g1
(g2
(S'S8'
p6350
I0
I1
tp6351
Rp6352
(I3
S'|'
p6353
NNNI8
I1
I0
tp6354
bS'Paraguay'
p6355
tp6356
Rp6357
g1
(g2
(S'S48'
p6358
I0
I1
tp6359
Rp6360
(I3
S'|'
p6361
NNNI48
I1
I0
tp6362
bS'Contraceptive prevalence (% of women ages 15-49)'
p6363
tp6364
Rp6365
(lp6366
g1
(g41
S'\x00\x00\x00\x00\x802\xc2@'
p6367
tp6368
Rp6369
ag1
(g41
S'\x00\x00\x00\x00\x00\x85\xbb@'
p6370
tp6371
Rp6372
ag1
(g41
S'\x85\xebQ\xb8>\xf3\xbf@'
p6373
tp6374
Rp6375
ag1
(g41
S'sK\xab!\xbb\xe2\xc0@'
p6376
tp6377
Rp6378
ag1
(g41
S'\xb5\x8a\xfe\x90\xef&\xc2@'
p6379
tp6380
Rp6381
ag1
(g41
S'gw52\x0b\x96\xc3@'
p6382
tp6383
Rp6384
a(lp6385
I2009
aI2010
aI2011
aI2012
aI2013
aI2014
atp6386
a(g1
(g2
(S'S4'
p6387
I0
I1
tp6388
Rp6389
(I3
S'|'
p6390
NNNI4
I1
I0
tp6391
bS'Peru'
p6392
tp6393
Rp6394
g1
(g2
(S'S48'
p6395
I0
I1
tp6396
Rp6397
(I3
S'|'
p6398
NNNI48
I1
I0
tp6399
bS'Contraceptive prevalence (% of women ages 15-49)'
p6400
tp6401
Rp6402
(lp6403
g1
(g41
S'\x00\x00\x00\x00\\\x1d\x1cA'
p6404
tp6405
Rp6406
ag1
(g41
S'\x00\x00\x00\x00\xa4g A'
p6407
tp6408
Rp6409
ag1
(g41
S'\x00\x00\x00\x00\xa0G#A'
p6410
tp6411
Rp6412
ag1
(g41
S'\x00\x00\x00\x00\x86"#A'
p6413
tp6414
Rp6415
ag1
(g41
S'\x00\x00\x00\x002:%A'
p6416
tp6417
Rp6418
ag1
(g41
S'\x00\x00\x00\x00\x82C.A'
p6419
tp6420
Rp6421
ag1
(g41
S'\x00\x00\x00\x00\x1f\x970A'
p6422
tp6423
Rp6424
ag1
(g41
S'\x00\x00\x00\x00E\xf91A'
p6425
tp6426
Rp6427
ag1
(g41
S'\x00\x00\x00\x00~\xd92A'
p6428
tp6429
Rp6430
ag1
(g41
S'\x00\x00\x00\x00\xd1\xcf2A'
p6431
tp6432
Rp6433
ag1
(g41
S'^\xbaI\xecgh7A'
p6434
tp6435
Rp6436
ag1
(g41
S"'\xc1\x1b\xbe\xd6\xb0;A"
p6437
tp6438
Rp6439
ag1
(g41
S'\x85<\xc4\x12\x1e\xfe>A'
p6440
tp6441
Rp6442
ag1
(g41
S'\xe8\xee!\xd5t\xb8@A'
p6443
tp6444
Rp6445
a(lp6446
I2001
aI2002
aI2003
aI2004
aI2005
aI2006
aI2007
aI2008
aI2009
aI2010
aI2011
aI2012
aI2013
aI2014
atp6447
a(g1
(g2
(S'S11'
p6448
I0
I1
tp6449
Rp6450
(I3
S'|'
p6451
NNNI11
I1
I0
tp6452
bS'Philippines'
p6453
tp6454
Rp6455
g1
(g2
(S'S48'
p6456
I0
I1
tp6457
Rp6458
(I3
S'|'
p6459
NNNI48
I1
I0
tp6460
bS'Contraceptive prevalence (% of women ages 15-49)'
p6461
tp6462
Rp6463
(lp6464
g1
(g41
S'\x00\x00\x00\x00\xfe GA'
p6465
tp6466
Rp6467
ag1
(g41
S'\x00\x00\x00\x00\x04\x95GA'
p6468
tp6469
Rp6470
ag1
(g41
S'\x00\x00\x00\x00\xc0]IA'
p6471
tp6472
Rp6473
ag1
(g41
S'\x00\x00\x00\x80[vJA'
p6474
tp6475
Rp6476
ag1
(g41
S'\x00\x00\x00\x00\x94\x0cLA'
p6477
tp6478
Rp6479
ag1
(g41
S'\x00\x00\x00\x80\xcb\xb8KA'
p6480
tp6481
Rp6482
ag1
(g41
S'\x00\x00\x00\x80\xf2\x0bLA'
p6483
tp6484
Rp6485
ag1
(g41
S'\x00\x00\x00\xc0I\x99PA'
p6486
tp6487
Rp6488
ag1
(g41
S'\x00\x00\x00\x00\xa1\x0eQA'
p6489
tp6490
Rp6491
ag1
(g41
S'\x86\xc9T)\x05nPA'
p6492
tp6493
Rp6494
ag1
(g41
S'\xd18y\xd7\x17\xdfRA'
p6495
tp6496
Rp6497
ag1
(g41
S'\xc4y\x19\xad\xb0,TA'
p6498
tp6499
Rp6500
ag1
(g41
S'\x80\xc1\xa4\xa6\xe8\xb0UA'
p6501
tp6502
Rp6503
ag1
(g41
S'\x1b\xbe\x05f\xe0ZVA'
p6504
tp6505
Rp6506
a(lp6507
I2001
aI2002
aI2003
aI2004
aI2005
aI2006
aI2007
aI2008
aI2009
aI2010
aI2011
aI2012
aI2013
aI2014
atp6508
a(g1
(g2
(S'S6'
p6509
I0
I1
tp6510
Rp6511
(I3
S'|'
p6512
NNNI6
I1
I0
tp6513
bS'Poland'
p6514
tp6515
Rp6516
g1
(g2
(S'S48'
p6517
I0
I1
tp6518
Rp6519
(I3
S'|'
p6520
NNNI48
I1
I0
tp6521
bS'Contraceptive prevalence (% of women ages 15-49)'
p6522
tp6523
Rp6524
(lp6525
g1
(g41
S'\x00\x00\x00\x00X\xe9\x0fA'
p6526
tp6527
Rp6528
ag1
(g41
S'\x00\x00\x00\x00\xa0 \x15A'
p6529
tp6530
Rp6531
ag1
(g41
S'\x00\x00\x00\x00T%\x1aA'
p6532
tp6533
Rp6534
ag1
(g41
S"\x00\x00\x00\x00\x9el'A"
p6535
tp6536
Rp6537
ag1
(g41
S'\x00\x00\x00\x00\x9a9*A'
p6538
tp6539
Rp6540
ag1
(g41
S'\x00\x00\x00\x00\x80~$A'
p6541
tp6542
Rp6543
ag1
(g41
S'\x00\x00\x00\x00\xe0\xe5/A'
p6544
tp6545
Rp6546
ag1
(g41
S'\xf0\xa7\xc6\xab\x0c\xc54A'
p6547
tp6548
Rp6549
ag1
(g41
S'\xeeZB\xf2\x1e\x899A'
p6550
tp6551
Rp6552
ag1
(g41
S'\xfeJ\xa5\xfa\r\x8d;A'
p6553
tp6554
Rp6555
a(lp6556
I2002
aI2004
aI2005
aI2008
aI2009
aI2010
aI2011
aI2012
aI2013
aI2014
atp6557
a(g1
(g2
(S'S8'
p6558
I0
I1
tp6559
Rp6560
(I3
S'|'
p6561
NNNI8
I1
I0
tp6562
bS'Portugal'
p6563
tp6564
Rp6565
g1
(g2
(S'S48'
p6566
I0
I1
tp6567
Rp6568
(I3
S'|'
p6569
NNNI48
I1
I0
tp6570
bS'Contraceptive prevalence (% of women ages 15-49)'
p6571
tp6572
Rp6573
(lp6574
g1
(g41
S'\x00\x00\x00\x00Nr$A'
p6575
tp6576
Rp6577
ag1
(g41
S'\x00\x00\x00\x00\xeae&A'
p6578
tp6579
Rp6580
ag1
(g41
S'\x00\x00\x00\x00\x08&(A'
p6581
tp6582
Rp6583
ag1
(g41
S'\x00\x00\x00\x000\xff\xf4@'
p6584
tp6585
Rp6586
ag1
(g41
S'\x00\x00\x00\x00(\xee*A'
p6587
tp6588
Rp6589
ag1
(g41
S'\x00\x00\x00\x00\xf0\x9b+A'
p6590
tp6591
Rp6592
ag1
(g41
S'\x00\x00\x00\x00\xda\xe8.A'
p6593
tp6594
Rp6595
ag1
(g41
S'\x00\x00\x00\x00\xbb\x934A'
p6596
tp6597
Rp6598
ag1
(g41
S'\x00\x00\x00\x00\xfa\xcb3A'
p6599
tp6600
Rp6601
ag1
(g41
S'\x00\x00\x00\x00J\xd22A'
p6602
tp6603
Rp6604
ag1
(g41
S'\xb8\x1e\x85\x8b\xe6\xc08A'
p6605
tp6606
Rp6607
ag1
(g41
S'\x8d\xee \xba\xd6\xd3:A'
p6608
tp6609
Rp6610
ag1
(g41
S'\\\x00}N\xa2)?A'
p6611
tp6612
Rp6613
ag1
(g41
S'5\xc4\xc6\xccA\xeeBA'
p6614
tp6615
Rp6616
a(lp6617
I2001
aI2002
aI2003
aI2004
aI2005
aI2006
aI2007
aI2008
aI2009
aI2010
aI2011
aI2012
aI2013
aI2014
atp6618
a(g1
(g2
(S'S11'
p6619
I0
I1
tp6620
Rp6621
(I3
S'|'
p6622
NNNI11
I1
I0
tp6623
bS'Puerto Rico'
p6624
tp6625
Rp6626
g1
(g2
(S'S48'
p6627
I0
I1
tp6628
Rp6629
(I3
S'|'
p6630
NNNI48
I1
I0
tp6631
bS'Contraceptive prevalence (% of women ages 15-49)'
p6632
tp6633
Rp6634
(lp6635
g1
(g41
S'\x00\x00\x00\x00$\xb0=A'
p6636
tp6637
Rp6638
ag1
(g41
S'\x00\x00\x00\x00L\xc7<A'
p6639
tp6640
Rp6641
ag1
(g41
S'\x00\x00\x00\x00,\xc35A'
p6642
tp6643
Rp6644
ag1
(g41
S'\x00\x00\x00\x002x9A'
p6645
tp6646
Rp6647
ag1
(g41
S'\x00\x00\x00\x00\x1cs9A'
p6648
tp6649
Rp6650
ag1
(g41
S'\x00\x00\x00\x00\x9d[:A'
p6651
tp6652
Rp6653
ag1
(g41
S'\x00\x00\x00\x00=\xb2:A'
p6654
tp6655
Rp6656
ag1
(g41
S'\x00\x00\x00\x00\x1a\xde9A'
p6657
tp6658
Rp6659
ag1
(g41
S'\x00\x00\x00\x00\x1cG7A'
p6660
tp6661
Rp6662
a(lp6663
I2001
aI2002
aI2003
aI2004
aI2005
aI2006
aI2007
aI2008
aI2011
atp6664
a(g1
(g2
(S'S5'
p6665
I0
I1
tp6666
Rp6667
(I3
S'|'
p6668
NNNI5
I1
I0
tp6669
bS'Qatar'
p6670
tp6671
Rp6672
g1
(g2
(S'S48'
p6673
I0
I1
tp6674
Rp6675
(I3
S'|'
p6676
NNNI48
I1
I0
tp6677
bS'Contraceptive prevalence (% of women ages 15-49)'
p6678
tp6679
Rp6680
(lp6681
g1
(g41
S'\x00\x00\x00\x00\xc0\\\x15A'
p6682
tp6683
Rp6684
ag1
(g41
S'\x00\x00\x00\x00\x00j\x18A'
p6685
tp6686
Rp6687
ag1
(g41
S'\x00\x00\x00\x00@\x06\x19A'
p6688
tp6689
Rp6690
ag1
(g41
S'\x00\x00\x00\x00@\x1e\x15A'
p6691
tp6692
Rp6693
ag1
(g41
S'\x00\x00\x00\x00hR\x16A'
p6694
tp6695
Rp6696
ag1
(g41
S'\x9a\x99\x99\x99\xfc\xfe\x17A'
p6697
tp6698
Rp6699
ag1
(g41
S'K\xc8\x07]H\xe4\x19A'
p6700
tp6701
Rp6702
a(lp6703
I2008
aI2009
aI2010
aI2011
aI2012
aI2013
aI2014
atp6704
a(g1
(g2
(S'S7'
p6705
I0
I1
tp6706
Rp6707
(I3
S'|'
p6708
NNNI7
I1
I0
tp6709
bS'Romania'
p6710
tp6711
Rp6712
g1
(g2
(S'S48'
p6713
I0
I1
tp6714
Rp6715
(I3
S'|'
p6716
NNNI48
I1
I0
tp6717
bS'Contraceptive prevalence (% of women ages 15-49)'
p6718
tp6719
Rp6720
(lp6721
g1
(g41
S'\x00\x00\x00\x00\x18\xcf\x16A'
p6722
tp6723
Rp6724
ag1
(g41
S"\x00\x00\x00\x00l\x88'A"
p6725
tp6726
Rp6727
ag1
(g41
S'\x00\x00\x00\x00\x14\xa6/A'
p6728
tp6729
Rp6730
ag1
(g41
S'\x00\x00\x00\x00V\x895A'
p6731
tp6732
Rp6733
ag1
(g41
S'\x00\x00\x00\x00G\x125A'
p6734
tp6735
Rp6736
ag1
(g41
S'\x00\x00\x00\x00\xf6""A'
p6737
tp6738
Rp6739
ag1
(g41
S'\x00\x00\x00\x00,\xfd A'
p6740
tp6741
Rp6742
ag1
(g41
S'\x00\x00\x00\x00\x18:$A'
p6743
tp6744
Rp6745
ag1
(g41
S'\x00\x00\x00\x006\xe0$A'
p6746
tp6747
Rp6748
ag1
(g41
S'\x8d\x97nRg\x86&A'
p6749
tp6750
Rp6751
a(lp6752
I2005
aI2006
aI2007
aI2008
aI2009
aI2010
aI2011
aI2012
aI2013
aI2014
atp6753
a(g1
(g2
(S'S18'
p6754
I0
I1
tp6755
Rp6756
(I3
S'|'
p6757
NNNI18
I1
I0
tp6758
bS'Russian Federation'
p6759
tp6760
Rp6761
g1
(g2
(S'S48'
p6762
I0
I1
tp6763
Rp6764
(I3
S'|'
p6765
NNNI48
I1
I0
tp6766
bS'Contraceptive prevalence (% of women ages 15-49)'
p6767
tp6768
Rp6769
(lp6770
g1
(g41
S'\x00\x00\x00\x00\xe0M\x13A'
p6771
tp6772
Rp6773
ag1
(g41
S'\x00\x00\x00\x00\x8a\x96"A'
p6774
tp6775
Rp6776
ag1
(g41
S"\x00\x00\x00\x00t\xa6'A"
p6777
tp6778
Rp6779
ag1
(g41
S'\x00\x00\x00\x00\x1cM-A'
p6780
tp6781
Rp6782
ag1
(g41
S'\x00\x00\x00\x00\x19\xe24A'
p6783
tp6784
Rp6785
ag1
(g41
S'\x00\x00\x00\x00z\x88;A'
p6786
tp6787
Rp6788
ag1
(g41
S'\x00\x00\x00\x80uIAA'
p6789
tp6790
Rp6791
ag1
(g41
S'\x00\x00\x00\x80\xe8\x99FA'
p6792
tp6793
Rp6794
ag1
(g41
S'\x15\x1d\xc9e$\xbaIA'
p6795
tp6796
Rp6797
ag1
(g41
S'\xca\xd5\xfa\xd8\xaf\x85BA'
p6798
tp6799
Rp6800
ag1
(g41
S'\x06\xd1\xde\x06\xf6iHA'
p6801
tp6802
Rp6803
ag1
(g41
S's4\x1eaP,NA'
p6804
tp6805
Rp6806
ag1
(g41
S'`x\x00b\xc9\xfcMA'
p6807
tp6808
Rp6809
ag1
(g41
S'\xdc\xaa\x1c\x04]FNA'
p6810
tp6811
Rp6812
a(lp6813
I2001
aI2002
aI2003
aI2004
aI2005
aI2006
aI2007
aI2008
aI2009
aI2010
aI2011
aI2012
aI2013
aI2014
atp6814
a(g1
(g2
(S'S6'
p6815
I0
I1
tp6816
Rp6817
(I3
S'|'
p6818
NNNI6
I1
I0
tp6819
bS'Rwanda'
p6820
tp6821
Rp6822
g1
(g2
(S'S48'
p6823
I0
I1
tp6824
Rp6825
(I3
S'|'
p6826
NNNI48
I1
I0
tp6827
bS'Contraceptive prevalence (% of women ages 15-49)'
p6828
tp6829
Rp6830
(lp6831
(lp6832
tp6833
a(g1
(g2
(S'S5'
p6834
I0
I1
tp6835
Rp6836
(I3
S'|'
p6837
NNNI5
I1
I0
tp6838
bS'Samoa'
p6839
tp6840
Rp6841
g1
(g2
(S'S48'
p6842
I0
I1
tp6843
Rp6844
(I3
S'|'
p6845
NNNI48
I1
I0
tp6846
bS'Contraceptive prevalence (% of women ages 15-49)'
p6847
tp6848
Rp6849
(lp6850
(lp6851
tp6852
a(g1
(g2
(S'S10'
p6853
I0
I1
tp6854
Rp6855
(I3
S'|'
p6856
NNNI10
I1
I0
tp6857
bS'San Marino'
p6858
tp6859
Rp6860
g1
(g2
(S'S48'
p6861
I0
I1
tp6862
Rp6863
(I3
S'|'
p6864
NNNI48
I1
I0
tp6865
bS'Contraceptive prevalence (% of women ages 15-49)'
p6866
tp6867
Rp6868
(lp6869
(lp6870
tp6871
a(g1
(g2
(S'S21'
p6872
I0
I1
tp6873
Rp6874
(I3
S'|'
p6875
NNNI21
I1
I0
tp6876
bS'Sao Tome and Principe'
p6877
tp6878
Rp6879
g1
(g2
(S'S48'
p6880
I0
I1
tp6881
Rp6882
(I3
S'|'
p6883
NNNI48
I1
I0
tp6884
bS'Contraceptive prevalence (% of women ages 15-49)'
p6885
tp6886
Rp6887
(lp6888
(lp6889
tp6890
a(g1
(g2
(S'S12'
p6891
I0
I1
tp6892
Rp6893
(I3
S'|'
p6894
NNNI12
I1
I0
tp6895
bS'Saudi Arabia'
p6896
tp6897
Rp6898
g1
(g2
(S'S48'
p6899
I0
I1
tp6900
Rp6901
(I3
S'|'
p6902
NNNI48
I1
I0
tp6903
bS'Contraceptive prevalence (% of women ages 15-49)'
p6904
tp6905
Rp6906
(lp6907
g1
(g41
S'\x00\x00\x00\x00\xad\xee6A'
p6908
tp6909
Rp6910
ag1
(g41
S'\x00\x00\x00\x00\xbf\x969A'
p6911
tp6912
Rp6913
ag1
(g41
S'\x00\x00\x00\x00\xaa\xe2=A'
p6914
tp6915
Rp6916
ag1
(g41
S'\x00\x00\x00\x80C\x9eBA'
p6917
tp6918
Rp6919
ag1
(g41
S"\x00\x00\x00\x00\xb2/'A"
p6920
tp6921
Rp6922
ag1
(g41
S'\x00\x00\x00\x00qzLA'
p6923
tp6924
Rp6925
ag1
(g41
S'\x00\x00\x00\x00QyMA'
p6926
tp6927
Rp6928
ag1
(g41
S'\x00\x00\x00\x805\x0ePA'
p6929
tp6930
Rp6931
ag1
(g41
S'\x00\x00\x00\x80\xfd\xbeQA'
p6932
tp6933
Rp6934
ag1
(g41
S'\x00\x00\x00\x00\xd5\xe6PA'
p6935
tp6936
Rp6937
ag1
(g41
S'\x00\x00\x00@\x9dDTA'
p6938
tp6939
Rp6940
ag1
(g41
S'\x00\x00\x00\x80\x12\xb9UA'
p6941
tp6942
Rp6943
ag1
(g41
S'\x00\x00\x00\x08\x01\nYA'
p6944
tp6945
Rp6946
ag1
(g41
S'\x00\x00\x00@_\xb8YA'
p6947
tp6948
Rp6949
a(lp6950
I2001
aI2002
aI2003
aI2004
aI2005
aI2006
aI2007
aI2008
aI2009
aI2010
aI2011
aI2012
aI2013
aI2014
atp6951
a(g1
(g2
(S'S7'
p6952
I0
I1
tp6953
Rp6954
(I3
S'|'
p6955
NNNI7
I1
I0
tp6956
bS'Senegal'
p6957
tp6958
Rp6959
g1
(g2
(S'S48'
p6960
I0
I1
tp6961
Rp6962
(I3
S'|'
p6963
NNNI48
I1
I0
tp6964
bS'Contraceptive prevalence (% of women ages 15-49)'
p6965
tp6966
Rp6967
(lp6968
g1
(g41
S'\x00\x00\x00\x00$\xe8\x19A'
p6969
tp6970
Rp6971
ag1
(g41
S'\x00\x00\x00\x00l5\x15A'
p6972
tp6973
Rp6974
ag1
(g41
S'\x00\x00\x00\x00\x105\x14A'
p6975
tp6976
Rp6977
ag1
(g41
S'\x00\x00\x00\x00\xbcP\x15A'
p6978
tp6979
Rp6980
ag1
(g41
S'J\x0c\x02\xab\xc4\x87\x16A'
p6981
tp6982
Rp6983
ag1
(g41
S'i\x00o\xd1Y8\x18A'
p6984
tp6985
Rp6986
ag1
(g41
S'\xb3\x00\xb7\xb6-"\x1aA'
p6987
tp6988
Rp6989
a(lp6990
I2008
aI2009
aI2010
aI2011
aI2012
aI2013
aI2014
atp6991
a(g1
(g2
(S'S6'
p6992
I0
I1
tp6993
Rp6994
(I3
S'|'
p6995
NNNI6
I1
I0
tp6996
bS'Serbia'
p6997
tp6998
Rp6999
g1
(g2
(S'S48'
p7000
I0
I1
tp7001
Rp7002
(I3
S'|'
p7003
NNNI48
I1
I0
tp7004
bS'Contraceptive prevalence (% of women ages 15-49)'
p7005
tp7006
Rp7007
(lp7008
(lp7009
tp7010
a(g1
(g2
(S'S10'
p7011
I0
I1
tp7012
Rp7013
(I3
S'|'
p7014
NNNI10
I1
I0
tp7015
bS'Seychelles'
p7016
tp7017
Rp7018
g1
(g2
(S'S48'
p7019
I0
I1
tp7020
Rp7021
(I3
S'|'
p7022
NNNI48
I1
I0
tp7023
bS'Contraceptive prevalence (% of women ages 15-49)'
p7024
tp7025
Rp7026
(lp7027
(lp7028
tp7029
a(g1
(g2
(S'S12'
p7030
I0
I1
tp7031
Rp7032
(I3
S'|'
p7033
NNNI12
I1
I0
tp7034
bS'Sierra Leone'
p7035
tp7036
Rp7037
g1
(g2
(S'S48'
p7038
I0
I1
tp7039
Rp7040
(I3
S'|'
p7041
NNNI48
I1
I0
tp7042
bS'Contraceptive prevalence (% of women ages 15-49)'
p7043
tp7044
Rp7045
(lp7046
(lp7047
tp7048
a(g1
(g2
(S'S9'
p7049
I0
I1
tp7050
Rp7051
(I3
S'|'
p7052
NNNI9
I1
I0
tp7053
bS'Singapore'
p7054
tp7055
Rp7056
g1
(g2
(S'S48'
p7057
I0
I1
tp7058
Rp7059
(I3
S'|'
p7060
NNNI48
I1
I0
tp7061
bS'Contraceptive prevalence (% of women ages 15-49)'
p7062
tp7063
Rp7064
(lp7065
g1
(g41
S'\x00\x00\x00\x00\xceNpA'
p7066
tp7067
Rp7068
ag1
(g41
S'\x00\x00\x00\xa0\xd8\xb3mA'
p7069
tp7070
Rp7071
ag1
(g41
S'\x00\x00\x00\xa0\xf92pA'
p7072
tp7073
Rp7074
ag1
(g41
S'\x00\x00\x00\x802\x96qA'
p7075
tp7076
Rp7077
ag1
(g41
S'\x00\x00\x00\xc0LWtA'
p7078
tp7079
Rp7080
ag1
(g41
S'\x00\x00\x00\x80(\x1evA'
p7081
tp7082
Rp7083
ag1
(g41
S'\x00\x00\x00\x00\xd5\xa4wA'
p7084
tp7085
Rp7086
ag1
(g41
S'\x00\x00\x00\xc0Po{A'
p7087
tp7088
Rp7089
ag1
(g41
S'\x00\x00\x00\x00\xccu}A'
p7090
tp7091
Rp7092
ag1
(g41
S'\x00\x00\x00\x00b\\yA'
p7093
tp7094
Rp7095
ag1
(g41
S'\x00\x00\x00@\xa8\xd3{A'
p7096
tp7097
Rp7098
ag1
(g41
S'\xcd\xcc\xcc\\\xe1M}A'
p7099
tp7100
Rp7101
ag1
(g41
S'\x8f\xc2\xf5\xbe=\xfe~A'
p7102
tp7103
Rp7104
ag1
(g41
S'!\xe5gm\xb3\xf6\x7fA'
p7105
tp7106
Rp7107
a(lp7108
I2001
aI2002
aI2003
aI2004
aI2005
aI2006
aI2007
aI2008
aI2009
aI2010
aI2011
aI2012
aI2013
aI2014
atp7109
a(g1
(g2
(S'S25'
p7110
I0
I1
tp7111
Rp7112
(I3
S'|'
p7113
NNNI25
I1
I0
tp7114
bS'Sint Maarten (Dutch part)'
p7115
tp7116
Rp7117
g1
(g2
(S'S48'
p7118
I0
I1
tp7119
Rp7120
(I3
S'|'
p7121
NNNI48
I1
I0
tp7122
bS'Contraceptive prevalence (% of women ages 15-49)'
p7123
tp7124
Rp7125
(lp7126
(lp7127
tp7128
a(g1
(g2
(S'S15'
p7129
I0
I1
tp7130
Rp7131
(I3
S'|'
p7132
NNNI15
I1
I0
tp7133
bS'Slovak Republic'
p7134
tp7135
Rp7136
g1
(g2
(S'S48'
p7137
I0
I1
tp7138
Rp7139
(I3
S'|'
p7140
NNNI48
I1
I0
tp7141
bS'Contraceptive prevalence (% of women ages 15-49)'
p7142
tp7143
Rp7144
(lp7145
(lp7146
tp7147
a(g1
(g2
(S'S8'
p7148
I0
I1
tp7149
Rp7150
(I3
S'|'
p7151
NNNI8
I1
I0
tp7152
bS'Slovenia'
p7153
tp7154
Rp7155
g1
(g2
(S'S48'
p7156
I0
I1
tp7157
Rp7158
(I3
S'|'
p7159
NNNI48
I1
I0
tp7160
bS'Contraceptive prevalence (% of women ages 15-49)'
p7161
tp7162
Rp7163
(lp7164
g1
(g41
S'\x00\x00\x00\x00\xc0\xa7\x12A'
p7165
tp7166
Rp7167
ag1
(g41
S'\x00\x00\x00\x00`\x99\x15A'
p7168
tp7169
Rp7170
ag1
(g41
S'\x00\x00\x00\x00\xf4\xf1\x14A'
p7171
tp7172
Rp7173
ag1
(g41
S'\x00\x00\x00\x00\xec\x18\x1dA'
p7174
tp7175
Rp7176
ag1
(g41
S'\x00\x00\x00\x00\x04\xfc!A'
p7177
tp7178
Rp7179
ag1
(g41
S'\x00\x00\x00\x00\xf0j!A'
p7180
tp7181
Rp7182
ag1
(g41
S';\xdfO\x8d1\xcb"A'
p7183
tp7184
Rp7185
a(lp7186
I2008
aI2009
aI2010
aI2011
aI2012
aI2013
aI2014
atp7187
a(g1
(g2
(S'S12'
p7188
I0
I1
tp7189
Rp7190
(I3
S'|'
p7191
NNNI12
I1
I0
tp7192
bS'Small states'
p7193
tp7194
Rp7195
g1
(g2
(S'S48'
p7196
I0
I1
tp7197
Rp7198
(I3
S'|'
p7199
NNNI48
I1
I0
tp7200
bS'Contraceptive prevalence (% of women ages 15-49)'
p7201
tp7202
Rp7203
(lp7204
(lp7205
tp7206
a(g1
(g2
(S'S15'
p7207
I0
I1
tp7208
Rp7209
(I3
S'|'
p7210
NNNI15
I1
I0
tp7211
bS'Solomon Islands'
p7212
tp7213
Rp7214
g1
(g2
(S'S48'
p7215
I0
I1
tp7216
Rp7217
(I3
S'|'
p7218
NNNI48
I1
I0
tp7219
bS'Contraceptive prevalence (% of women ages 15-49)'
p7220
tp7221
Rp7222
(lp7223
(lp7224
tp7225
a(g1
(g2
(S'S7'
p7226
I0
I1
tp7227
Rp7228
(I3
S'|'
p7229
NNNI7
I1
I0
tp7230
bS'Somalia'
p7231
tp7232
Rp7233
g1
(g2
(S'S48'
p7234
I0
I1
tp7235
Rp7236
(I3
S'|'
p7237
NNNI48
I1
I0
tp7238
bS'Contraceptive prevalence (% of women ages 15-49)'
p7239
tp7240
Rp7241
(lp7242
(lp7243
tp7244
a(g1
(g2
(S'S12'
p7245
I0
I1
tp7246
Rp7247
(I3
S'|'
p7248
NNNI12
I1
I0
tp7249
bS'South Africa'
p7250
tp7251
Rp7252
g1
(g2
(S'S48'
p7253
I0
I1
tp7254
Rp7255
(I3
S'|'
p7256
NNNI48
I1
I0
tp7257
bS'Contraceptive prevalence (% of women ages 15-49)'
p7258
tp7259
Rp7260
(lp7261
g1
(g41
S'\x00\x00\x00\x00\xa0.<A'
p7262
tp7263
Rp7264
ag1
(g41
S'\x00\x00\x00\x00?\xd7>A'
p7265
tp7266
Rp7267
ag1
(g41
S'\x00\x00\x00\x00\x8a};A'
p7268
tp7269
Rp7270
ag1
(g41
S'\x00\x00\x00\x80@&BA'
p7271
tp7272
Rp7273
ag1
(g41
S'\x00\x00\x00\x80\x98\xf2CA'
p7274
tp7275
Rp7276
ag1
(g41
S'\x00\x00\x00\x80h\xbcGA'
p7277
tp7278
Rp7279
ag1
(g41
S'\x00\x00\x00\x00\xe3\x19KA'
p7280
tp7281
Rp7282
ag1
(g41
S'\x00\x00\x00\x80J}LA'
p7283
tp7284
Rp7285
ag1
(g41
S'\x00\x00\x00\x008\x92MA'
p7286
tp7287
Rp7288
ag1
(g41
S'\x00\x00\x00\x80\xf4mLA'
p7289
tp7290
Rp7291
ag1
(g41
S'\x00\x00\x00\x80m\nMA'
p7292
tp7293
Rp7294
ag1
(g41
S'\x00\x00\x00\xc0\x03\xc2PA'
p7295
tp7296
Rp7297
ag1
(g41
S'\x00\x00\x00\x00W{PA'
p7298
tp7299
Rp7300
ag1
(g41
S'\x00\x00\x00\x00N\x87QA'
p7301
tp7302
Rp7303
a(lp7304
I2001
aI2002
aI2003
aI2004
aI2005
aI2006
aI2007
aI2008
aI2009
aI2010
aI2011
aI2012
aI2013
aI2014
atp7305
a(g1
(g2
(S'S10'
p7306
I0
I1
tp7307
Rp7308
(I3
S'|'
p7309
NNNI10
I1
I0
tp7310
bS'South Asia'
p7311
tp7312
Rp7313
g1
(g2
(S'S48'
p7314
I0
I1
tp7315
Rp7316
(I3
S'|'
p7317
NNNI48
I1
I0
tp7318
bS'Contraceptive prevalence (% of women ages 15-49)'
p7319
tp7320
Rp7321
(lp7322
g1
(g41
S'\x00\x00\x00\x80\xc7\xb2QA'
p7323
tp7324
Rp7325
ag1
(g41
S'\x00\x00\x00\xc0GWVA'
p7326
tp7327
Rp7328
ag1
(g41
S'\x00\x00\x00\x00\x123UA'
p7329
tp7330
Rp7331
ag1
(g41
S'\x00\x00\x00\xc0\r\xce[A'
p7332
tp7333
Rp7334
ag1
(g41
S'\x00\x00\x00\xa0\x8bH`A'
p7335
tp7336
Rp7337
ag1
(g41
S'\x00\x00\x00\x80\xef\xf1bA'
p7338
tp7339
Rp7340
ag1
(g41
S'\x00\x00\x00`\xef\xb1fA'
p7341
tp7342
Rp7343
ag1
(g41
S'\x00\x00\x00\xa0\xf4\xcajA'
p7344
tp7345
Rp7346
ag1
(g41
S'\x00\x00\x00\xa0"\x8ckA'
p7347
tp7348
Rp7349
ag1
(g41
S'fff&V.lA'
p7350
tp7351
Rp7352
ag1
(g41
S'\x00\x00\x00\xf0@\x85pA'
p7353
tp7354
Rp7355
ag1
(g41
S'\xb2\x9d\xef9\x8deqA'
p7356
tp7357
Rp7358
ag1
(g41
S'\xcc\x7f\xc8 -\x81qA'
p7359
tp7360
Rp7361
ag1
(g41
S'v\xa4:\xf9\xfbHrA'
p7362
tp7363
Rp7364
a(lp7365
I2001
aI2002
aI2003
aI2004
aI2005
aI2006
aI2007
aI2008
aI2009
aI2010
aI2011
aI2012
aI2013
aI2014
atp7366
a(g1
(g2
(S'S11'
p7367
I0
I1
tp7368
Rp7369
(I3
S'|'
p7370
NNNI11
I1
I0
tp7371
bS'South Sudan'
p7372
tp7373
Rp7374
g1
(g2
(S'S48'
p7375
I0
I1
tp7376
Rp7377
(I3
S'|'
p7378
NNNI48
I1
I0
tp7379
bS'Contraceptive prevalence (% of women ages 15-49)'
p7380
tp7381
Rp7382
(lp7383
(lp7384
tp7385
a(g1
(g2
(S'S5'
p7386
I0
I1
tp7387
Rp7388
(I3
S'|'
p7389
NNNI5
I1
I0
tp7390
bS'Spain'
p7391
tp7392
Rp7393
g1
(g2
(S'S48'
p7394
I0
I1
tp7395
Rp7396
(I3
S'|'
p7397
NNNI48
I1
I0
tp7398
bS'Contraceptive prevalence (% of women ages 15-49)'
p7399
tp7400
Rp7401
(lp7402
g1
(g41
S'\x00\x00\x00@\xff\x15VA'
p7403
tp7404
Rp7405
ag1
(g41
S'\x00\x00\x00\xc0\x0f|WA'
p7406
tp7407
Rp7408
ag1
(g41
S'\x00\x00\x00\x00\xe9kYA'
p7409
tp7410
Rp7411
ag1
(g41
S'\x00\x00\x00\x00_\x17\\A'
p7412
tp7413
Rp7414
ag1
(g41
S'\x00\x00\x00@\x99\x8c_A'
p7415
tp7416
Rp7417
ag1
(g41
S'\x00\x00\x00\xa0\xcf}aA'
p7418
tp7419
Rp7420
ag1
(g41
S'\x00\x00\x00 \xf8"cA'
p7421
tp7422
Rp7423
ag1
(g41
S'\x00\x00\x00\x80\x9dtiA'
p7424
tp7425
Rp7426
ag1
(g41
S'\t\x8a\x1f\x03\xe7\xaciA'
p7427
tp7428
Rp7429
ag1
(g41
S';p\xce\x08G\x83fA'
p7430
tp7431
Rp7432
ag1
(g41
S'\x93\x18\x04\xfe\xb2\x0ehA'
p7433
tp7434
Rp7435
ag1
(g41
S'}?5:F\x9ajA'
p7436
tp7437
Rp7438
ag1
(g41
S'\x08=\x1b\x13\x1d\x0ekA'
p7439
tp7440
Rp7441
ag1
(g41
S'\xeb\xe6\xfdE\xc8\xbdjA'
p7442
tp7443
Rp7444
a(lp7445
I2001
aI2002
aI2003
aI2004
aI2005
aI2006
aI2007
aI2008
aI2009
aI2010
aI2011
aI2012
aI2013
aI2014
atp7446
a(g1
(g2
(S'S9'
p7447
I0
I1
tp7448
Rp7449
(I3
S'|'
p7450
NNNI9
I1
I0
tp7451
bS'Sri Lanka'
p7452
tp7453
Rp7454
g1
(g2
(S'S48'
p7455
I0
I1
tp7456
Rp7457
(I3
S'|'
p7458
NNNI48
I1
I0
tp7459
bS'Contraceptive prevalence (% of women ages 15-49)'
p7460
tp7461
Rp7462
(lp7463
g1
(g41
S'\x00\x00\x00\x00\xf7p:A'
p7464
tp7465
Rp7466
ag1
(g41
S'\x00\x00\x00\x00\x8dX:A'
p7467
tp7468
Rp7469
ag1
(g41
S'\x00\x00\x00\x00p\xed:A'
p7470
tp7471
Rp7472
ag1
(g41
S'\x00\x00\x00\x00\xba\xe5=A'
p7473
tp7474
Rp7475
ag1
(g41
S'\x00\x00\x00\x80\xf6\xf0@A'
p7476
tp7477
Rp7478
ag1
(g41
S'\x00\x00\x00\x80\x80\xbbBA'
p7479
tp7480
Rp7481
ag1
(g41
S'\x00\x00\x00\x00\xee}GA'
p7482
tp7483
Rp7484
ag1
(g41
S'\x00\x00\x00\x00\xd5!LA'
p7485
tp7486
Rp7487
ag1
(g41
S'\x00\x00\x00\x80\x14"LA'
p7488
tp7489
Rp7490
ag1
(g41
S'\x00\x00\x00\x804nJA'
p7491
tp7492
Rp7493
ag1
(g41
S'\x00\x00\x00\x00\x80\x84NA'
p7494
tp7495
Rp7496
ag1
(g41
S'\x00\x00\x00\xc0\xf9BPA'
p7497
tp7498
Rp7499
ag1
(g41
S'\x00\x00\x00\x00\x10\xe4OA'
p7500
tp7501
Rp7502
ag1
(g41
S'\x00\x00\x00\x00\x14mPA'
p7503
tp7504
Rp7505
a(lp7506
I2001
aI2002
aI2003
aI2004
aI2005
aI2006
aI2007
aI2008
aI2009
aI2010
aI2011
aI2012
aI2013
aI2014
atp7507
a(g1
(g2
(S'S19'
p7508
I0
I1
tp7509
Rp7510
(I3
S'|'
p7511
NNNI19
I1
I0
tp7512
bS'St. Kitts and Nevis'
p7513
tp7514
Rp7515
g1
(g2
(S'S48'
p7516
I0
I1
tp7517
Rp7518
(I3
S'|'
p7519
NNNI48
I1
I0
tp7520
bS'Contraceptive prevalence (% of women ages 15-49)'
p7521
tp7522
Rp7523
(lp7524
(lp7525
tp7526
a(g1
(g2
(S'S9'
p7527
I0
I1
tp7528
Rp7529
(I3
S'|'
p7530
NNNI9
I1
I0
tp7531
bS'St. Lucia'
p7532
tp7533
Rp7534
g1
(g2
(S'S48'
p7535
I0
I1
tp7536
Rp7537
(I3
S'|'
p7538
NNNI48
I1
I0
tp7539
bS'Contraceptive prevalence (% of women ages 15-49)'
p7540
tp7541
Rp7542
(lp7543
g1
(g41
S'\x00\x00\x00\x00\xc0#\xeb@'
p7544
tp7545
Rp7546
ag1
(g41
S'\x00\x00\x00\x00\xa0#\xf1@'
p7547
tp7548
Rp7549
ag1
(g41
S'\x00\x00\x00\x00\xc0\\\xe9@'
p7550
tp7551
Rp7552
ag1
(g41
S'\x00\x00\x00\x00\xe0\x9f\xe9@'
p7553
tp7554
Rp7555
ag1
(g41
S'\xa2E\xb6\xf3]\x95\xec@'
p7556
tp7557
Rp7558
ag1
(g41
S'\xdb\x8a\xfde+\xba\xee@'
p7559
tp7560
Rp7561
ag1
(g41
S'\xc5\xb4\xcag\xcc\x93\xf0@'
p7562
tp7563
Rp7564
a(lp7565
I2008
aI2009
aI2010
aI2011
aI2012
aI2013
aI2014
atp7566
a(g1
(g2
(S'S24'
p7567
I0
I1
tp7568
Rp7569
(I3
S'|'
p7570
NNNI24
I1
I0
tp7571
bS'St. Martin (French part)'
p7572
tp7573
Rp7574
g1
(g2
(S'S48'
p7575
I0
I1
tp7576
Rp7577
(I3
S'|'
p7578
NNNI48
I1
I0
tp7579
bS'Contraceptive prevalence (% of women ages 15-49)'
p7580
tp7581
Rp7582
(lp7583
(lp7584
tp7585
a(g1
(g2
(S'S30'
p7586
I0
I1
tp7587
Rp7588
(I3
S'|'
p7589
NNNI30
I1
I0
tp7590
bS'St. Vincent and the Grenadines'
p7591
tp7592
Rp7593
g1
(g2
(S'S48'
p7594
I0
I1
tp7595
Rp7596
(I3
S'|'
p7597
NNNI48
I1
I0
tp7598
bS'Contraceptive prevalence (% of women ages 15-49)'
p7599
tp7600
Rp7601
(lp7602
g1
(g41
S'\x00\x00\x00\x00\x80.\xd0@'
p7603
tp7604
Rp7605
ag1
(g41
S'\x00\x00\x00\x00\x00\xb7\xcf@'
p7606
tp7607
Rp7608
ag1
(g41
S'\x08\xac\x1cZ\x14i\xd2@'
p7609
tp7610
Rp7611
ag1
(g41
S'\x12\x15\xaa\x9b\xb9u\xd3@'
p7612
tp7613
Rp7614
ag1
(g41
S'\xda\t\x8a\xbaZ\xeb\xd4@'
p7615
tp7616
Rp7617
ag1
(g41
S'\xa8I\x8ejm\x92\xd6@'
p7618
tp7619
Rp7620
a(lp7621
I2009
aI2010
aI2011
aI2012
aI2013
aI2014
atp7622
a(g1
(g2
(S'S38'
p7623
I0
I1
tp7624
Rp7625
(I3
S'|'
p7626
NNNI38
I1
I0
tp7627
bS'Sub-Saharan Africa (all income levels)'
p7628
tp7629
Rp7630
g1
(g2
(S'S48'
p7631
I0
I1
tp7632
Rp7633
(I3
S'|'
p7634
NNNI48
I1
I0
tp7635
bS'Contraceptive prevalence (% of women ages 15-49)'
p7636
tp7637
Rp7638
(lp7639
(lp7640
tp7641
a(g1
(g2
(S'S36'
p7642
I0
I1
tp7643
Rp7644
(I3
S'|'
p7645
NNNI36
I1
I0
tp7646
bS'Sub-Saharan Africa (developing only)'
p7647
tp7648
Rp7649
g1
(g2
(S'S48'
p7650
I0
I1
tp7651
Rp7652
(I3
S'|'
p7653
NNNI48
I1
I0
tp7654
bS'Contraceptive prevalence (% of women ages 15-49)'
p7655
tp7656
Rp7657
(lp7658
(lp7659
tp7660
a(g1
(g2
(S'S5'
p7661
I0
I1
tp7662
Rp7663
(I3
S'|'
p7664
NNNI5
I1
I0
tp7665
bS'Sudan'
p7666
tp7667
Rp7668
g1
(g2
(S'S48'
p7669
I0
I1
tp7670
Rp7671
(I3
S'|'
p7672
NNNI48
I1
I0
tp7673
bS'Contraceptive prevalence (% of women ages 15-49)'
p7674
tp7675
Rp7676
(lp7677
g1
(g41
S'\x00\x00\x00\x00 \xe2\x14A'
p7678
tp7679
Rp7680
ag1
(g41
S'\x00\x00\x00\x00\x8c\xdf\x17A'
p7681
tp7682
Rp7683
ag1
(g41
S'\x00\x00\x00\x00\x00R\x1aA'
p7684
tp7685
Rp7686
ag1
(g41
S'\x00\x00\x00\x00\xf0\xcc\x1aA'
p7687
tp7688
Rp7689
ag1
(g41
S'\xcd\xcc\xcc\xcc\x02T\x1cA'
p7690
tp7691
Rp7692
ag1
(g41
S'\x8f\xc2\xf5h\xe9s\x1eA'
p7693
tp7694
Rp7695
ag1
(g41
S'd@\xf6\xf6\xe4m A'
p7696
tp7697
Rp7698
a(lp7699
I2008
aI2009
aI2010
aI2011
aI2012
aI2013
aI2014
atp7700
a(g1
(g2
(S'S8'
p7701
I0
I1
tp7702
Rp7703
(I3
S'|'
p7704
NNNI8
I1
I0
tp7705
bS'Suriname'
p7706
tp7707
Rp7708
g1
(g2
(S'S48'
p7709
I0
I1
tp7710
Rp7711
(I3
S'|'
p7712
NNNI48
I1
I0
tp7713
bS'Contraceptive prevalence (% of women ages 15-49)'
p7714
tp7715
Rp7716
(lp7717
(lp7718
tp7719
a(g1
(g2
(S'S9'
p7720
I0
I1
tp7721
Rp7722
(I3
S'|'
p7723
NNNI9
I1
I0
tp7724
bS'Swaziland'
p7725
tp7726
Rp7727
g1
(g2
(S'S48'
p7728
I0
I1
tp7729
Rp7730
(I3
S'|'
p7731
NNNI48
I1
I0
tp7732
bS'Contraceptive prevalence (% of women ages 15-49)'
p7733
tp7734
Rp7735
(lp7736
(lp7737
tp7738
a(g1
(g2
(S'S6'
p7739
I0
I1
tp7740
Rp7741
(I3
S'|'
p7742
NNNI6
I1
I0
tp7743
bS'Sweden'
p7744
tp7745
Rp7746
g1
(g2
(S'S48'
p7747
I0
I1
tp7748
Rp7749
(I3
S'|'
p7750
NNNI48
I1
I0
tp7751
bS'Contraceptive prevalence (% of women ages 15-49)'
p7752
tp7753
Rp7754
(lp7755
g1
(g41
S'\x00\x00\x00\x00P\xfb*A'
p7756
tp7757
Rp7758
ag1
(g41
S'\x00\x00\x00\x00&\xfa)A'
p7759
tp7760
Rp7761
ag1
(g41
S'\x00\x00\x00\x00\xd4\x95(A'
p7762
tp7763
Rp7764
ag1
(g41
S'\x00\x00\x00\x00\xa01*A'
p7765
tp7766
Rp7767
ag1
(g41
S'\x00\x00\x00\x00w\xc40A'
p7768
tp7769
Rp7770
ag1
(g41
S'\x00\x00\x00\x00K\x1f3A'
p7771
tp7772
Rp7773
ag1
(g41
S'\x00\x00\x00\x00\xc1j3A'
p7774
tp7775
Rp7776
ag1
(g41
S'\x00\x00\x00\x00X\xa83A'
p7777
tp7778
Rp7779
ag1
(g41
S'\x00\x00\x00\x00Z\xd13A'
p7780
tp7781
Rp7782
ag1
(g41
S'\x00\x00\x00\x00`\x183A'
p7783
tp7784
Rp7785
ag1
(g41
S'\x00\x00\x00\x00\xa875A'
p7786
tp7787
Rp7788
ag1
(g41
S'`\xe5\xd0\xe2\xd0\x1e7A'
p7789
tp7790
Rp7791
ag1
(g41
S'\xfb\\m\xed\xd6t8A'
p7792
tp7793
Rp7794
ag1
(g41
S'\x9b%\\\xf2\xa7s8A'
p7795
tp7796
Rp7797
a(lp7798
I2001
aI2002
aI2003
aI2004
aI2005
aI2006
aI2007
aI2008
aI2009
aI2010
aI2011
aI2012
aI2013
aI2014
atp7799
a(g1
(g2
(S'S11'
p7800
I0
I1
tp7801
Rp7802
(I3
S'|'
p7803
NNNI11
I1
I0
tp7804
bS'Switzerland'
p7805
tp7806
Rp7807
g1
(g2
(S'S48'
p7808
I0
I1
tp7809
Rp7810
(I3
S'|'
p7811
NNNI48
I1
I0
tp7812
bS'Contraceptive prevalence (% of women ages 15-49)'
p7813
tp7814
Rp7815
(lp7816
g1
(g41
S'\x00\x00\x00\x00\xe0z\xf9@'
p7817
tp7818
Rp7819
ag1
(g41
S'\x00\x00\x00\x00\x00\x93\xf6@'
p7820
tp7821
Rp7822
ag1
(g41
S'\x00\x00\x00\x00\xd0\x1c\xf3@'
p7823
tp7824
Rp7825
ag1
(g41
S'\x00\x00\x00\x00\x80.\xf8@'
p7826
tp7827
Rp7828
ag1
(g41
S'\x9e\xef\xa7\xc6[\x8f\xf9@'
p7829
tp7830
Rp7831
ag1
(g41
S'c\xeeZB\x1cz\xfb@'
p7832
tp7833
Rp7834
ag1
(g41
S'\xef\xb4\x90\x1b\xce\xa5\xfd@'
p7835
tp7836
Rp7837
a(lp7838
I2008
aI2009
aI2010
aI2011
aI2012
aI2013
aI2014
atp7839
a(g1
(g2
(S'S20'
p7840
I0
I1
tp7841
Rp7842
(I3
S'|'
p7843
NNNI20
I1
I0
tp7844
bS'Syrian Arab Republic'
p7845
tp7846
Rp7847
g1
(g2
(S'S48'
p7848
I0
I1
tp7849
Rp7850
(I3
S'|'
p7851
NNNI48
I1
I0
tp7852
bS'Contraceptive prevalence (% of women ages 15-49)'
p7853
tp7854
Rp7855
(lp7856
g1
(g41
S'\x00\x00\x00\x00:o A'
p7857
tp7858
Rp7859
ag1
(g41
S'\x00\x00\x00\x00^\xa2"A'
p7860
tp7861
Rp7862
ag1
(g41
S'\x00\x00\x00\x00\xe6\xe9$A'
p7863
tp7864
Rp7865
ag1
(g41
S'\x00\x00\x00\x00Z\xce#A'
p7866
tp7867
Rp7868
ag1
(g41
S'\x1f\x85\xeb\x91\\\xef$A'
p7869
tp7870
Rp7871
ag1
(g41
S'Nb\x10PP\x81&A'
p7872
tp7873
Rp7874
ag1
(g41
S'\x85\xd2\x17\x1fuH(A'
p7875
tp7876
Rp7877
a(lp7878
I2008
aI2009
aI2010
aI2011
aI2012
aI2013
aI2014
atp7879
a(g1
(g2
(S'S10'
p7880
I0
I1
tp7881
Rp7882
(I3
S'|'
p7883
NNNI10
I1
I0
tp7884
bS'Tajikistan'
p7885
tp7886
Rp7887
g1
(g2
(S'S48'
p7888
I0
I1
tp7889
Rp7890
(I3
S'|'
p7891
NNNI48
I1
I0
tp7892
bS'Contraceptive prevalence (% of women ages 15-49)'
p7893
tp7894
Rp7895
(lp7896
(lp7897
tp7898
a(g1
(g2
(S'S8'
p7899
I0
I1
tp7900
Rp7901
(I3
S'|'
p7902
NNNI8
I1
I0
tp7903
bS'Tanzania'
p7904
tp7905
Rp7906
g1
(g2
(S'S48'
p7907
I0
I1
tp7908
Rp7909
(I3
S'|'
p7910
NNNI48
I1
I0
tp7911
bS'Contraceptive prevalence (% of women ages 15-49)'
p7912
tp7913
Rp7914
(lp7915
g1
(g41
S'\x00\x00\x00\x00<l\x15A'
p7916
tp7917
Rp7918
ag1
(g41
S'\x00\x00\x00\x00\xb8,\x16A'
p7919
tp7920
Rp7921
ag1
(g41
S'\x1e\xa7\xe8\xc82\xa1\x16A'
p7922
tp7923
Rp7924
ag1
(g41
S'\x97\xaf&\xfa\x933\x1aA'
p7925
tp7926
Rp7927
ag1
(g41
S'p\x9e\xb2\xf4\xe8\xb1\x1bA'
p7928
tp7929
Rp7930
ag1
(g41
S'\xeb\x03@:\xa7\xc5\x1dA'
p7931
tp7932
Rp7933
ag1
(g41
S'\xdd q\xc5\xe1\x0f A'
p7934
tp7935
Rp7936
a(lp7937
I2008
aI2009
aI2010
aI2011
aI2012
aI2013
aI2014
atp7938
a(g1
(g2
(S'S8'
p7939
I0
I1
tp7940
Rp7941
(I3
S'|'
p7942
NNNI8
I1
I0
tp7943
bS'Thailand'
p7944
tp7945
Rp7946
g1
(g2
(S'S48'
p7947
I0
I1
tp7948
Rp7949
(I3
S'|'
p7950
NNNI48
I1
I0
tp7951
bS'Contraceptive prevalence (% of women ages 15-49)'
p7952
tp7953
Rp7954
(lp7955
g1
(g41
S'\x00\x00\x00\x80\x8d@HA'
p7956
tp7957
Rp7958
ag1
(g41
S'\x00\x00\x00\x80_\xd7IA'
p7959
tp7960
Rp7961
ag1
(g41
S'\x00\x00\x00\x00\x19\xfcLA'
p7962
tp7963
Rp7964
ag1
(g41
S'\x00\x00\x00@{%PA'
p7965
tp7966
Rp7967
ag1
(g41
S'\x00\x00\x00\x00f}RA'
p7968
tp7969
Rp7970
ag1
(g41
S'\x00\x00\x00@S\x83SA'
p7971
tp7972
Rp7973
ag1
(g41
S'\x00\x00\x00\x80\xd6CUA'
p7974
tp7975
Rp7976
ag1
(g41
S'\x00\x00\x00@\xaf.XA'
p7977
tp7978
Rp7979
ag1
(g41
S'\x00\x00\x00@\x97\xa8YA'
p7980
tp7981
Rp7982
ag1
(g41
S'\x00\x00\x00\xc0\xb3\x7fVA'
p7983
tp7984
Rp7985
ag1
(g41
S'\x00\x00\x00\x00\xb5\\YA'
p7986
tp7987
Rp7988
ag1
(g41
S'\xa8\xc6KoP[[A'
p7989
tp7990
Rp7991
ag1
(g41
S'\xc1\xa8\xa4\x17\xd9}\\A'
p7992
tp7993
Rp7994
ag1
(g41
S'\x0f4\x93\xf9\xf2a]A'
p7995
tp7996
Rp7997
a(lp7998
I2001
aI2002
aI2003
aI2004
aI2005
aI2006
aI2007
aI2008
aI2009
aI2010
aI2011
aI2012
aI2013
aI2014
atp7999
a(g1
(g2
(S'S11'
p8000
I0
I1
tp8001
Rp8002
(I3
S'|'
p8003
NNNI11
I1
I0
tp8004
bS'Timor-Leste'
p8005
tp8006
Rp8007
g1
(g2
(S'S48'
p8008
I0
I1
tp8009
Rp8010
(I3
S'|'
p8011
NNNI48
I1
I0
tp8012
bS'Contraceptive prevalence (% of women ages 15-49)'
p8013
tp8014
Rp8015
(lp8016
(lp8017
tp8018
a(g1
(g2
(S'S4'
p8019
I0
I1
tp8020
Rp8021
(I3
S'|'
p8022
NNNI4
I1
I0
tp8023
bS'Togo'
p8024
tp8025
Rp8026
g1
(g2
(S'S48'
p8027
I0
I1
tp8028
Rp8029
(I3
S'|'
p8030
NNNI48
I1
I0
tp8031
bS'Contraceptive prevalence (% of women ages 15-49)'
p8032
tp8033
Rp8034
(lp8035
(lp8036
tp8037
a(g1
(g2
(S'S5'
p8038
I0
I1
tp8039
Rp8040
(I3
S'|'
p8041
NNNI5
I1
I0
tp8042
bS'Tonga'
p8043
tp8044
Rp8045
g1
(g2
(S'S48'
p8046
I0
I1
tp8047
Rp8048
(I3
S'|'
p8049
NNNI48
I1
I0
tp8050
bS'Contraceptive prevalence (% of women ages 15-49)'
p8051
tp8052
Rp8053
(lp8054
(lp8055
tp8056
a(g1
(g2
(S'S19'
p8057
I0
I1
tp8058
Rp8059
(I3
S'|'
p8060
NNNI19
I1
I0
tp8061
bS'Trinidad and Tobago'
p8062
tp8063
Rp8064
g1
(g2
(S'S48'
p8065
I0
I1
tp8066
Rp8067
(I3
S'|'
p8068
NNNI48
I1
I0
tp8069
bS'Contraceptive prevalence (% of women ages 15-49)'
p8070
tp8071
Rp8072
(lp8073
g1
(g41
S'\x00\x00\x00\x00\xdc=\x11A'
p8074
tp8075
Rp8076
ag1
(g41
S'\x00\x00\x00\x00\xd8\x87\x15A'
p8077
tp8078
Rp8079
ag1
(g41
S'\x00\x00\x00\x008\x83\x17A'
p8080
tp8081
Rp8082
ag1
(g41
S'\x00\x00\x00\x00\xc8\xe0\x1aA'
p8083
tp8084
Rp8085
ag1
(g41
S'\x00\x00\x00\x00\xf4g\x1fA'
p8086
tp8087
Rp8088
ag1
(g41
S'\x00\x00\x00\x00\xda\xe8 A'
p8089
tp8090
Rp8091
ag1
(g41
S'\x00\x00\x00\x00\x1eO!A'
p8092
tp8093
Rp8094
ag1
(g41
S'\x00\x00\x00\x00B~!A'
p8095
tp8096
Rp8097
ag1
(g41
S'h\x91\xed\xbc\x84}"A'
p8098
tp8099
Rp8100
ag1
(g41
S'P\xfc\x18K\x88\xe0#A'
p8101
tp8102
Rp8103
ag1
(g41
S'\xeb,\xc4\xc5\x86r%A'
p8104
tp8105
Rp8106
a(lp8107
I2001
aI2002
aI2003
aI2004
aI2008
aI2009
aI2010
aI2011
aI2012
aI2013
aI2014
atp8108
a(g1
(g2
(S'S7'
p8109
I0
I1
tp8110
Rp8111
(I3
S'|'
p8112
NNNI7
I1
I0
tp8113
bS'Tunisia'
p8114
tp8115
Rp8116
g1
(g2
(S'S48'
p8117
I0
I1
tp8118
Rp8119
(I3
S'|'
p8120
NNNI48
I1
I0
tp8121
bS'Contraceptive prevalence (% of women ages 15-49)'
p8122
tp8123
Rp8124
(lp8125
g1
(g41
S'\x00\x00\x00\x00T\xaa\x19A'
p8126
tp8127
Rp8128
ag1
(g41
S'\x00\x00\x00\x000\xed\x19A'
p8129
tp8130
Rp8131
ag1
(g41
S'\x0b$(~\x0f\x91\x19A'
p8132
tp8133
Rp8134
ag1
(g41
S'\xdbT8\xbdww\x1cA'
p8135
tp8136
Rp8137
ag1
(g41
S'\x8a\xa9\xe0w\xda\x16\x1eA'
p8138
tp8139
Rp8140
ag1
(g41
S"\xf0'o\xa0H, A"
p8141
tp8142
Rp8143
ag1
(g41
S'\\\x81e\xb9]s!A'
p8144
tp8145
Rp8146
a(lp8147
I2008
aI2009
aI2010
aI2011
aI2012
aI2013
aI2014
atp8148
a(g1
(g2
(S'S6'
p8149
I0
I1
tp8150
Rp8151
(I3
S'|'
p8152
NNNI6
I1
I0
tp8153
bS'Turkey'
p8154
tp8155
Rp8156
g1
(g2
(S'S48'
p8157
I0
I1
tp8158
Rp8159
(I3
S'|'
p8160
NNNI48
I1
I0
tp8161
bS'Contraceptive prevalence (% of women ages 15-49)'
p8162
tp8163
Rp8164
(lp8165
g1
(g41
S'\x00\x00\x00\x00\xbbI8A'
p8166
tp8167
Rp8168
ag1
(g41
S'\x00\x00\x00\x000K7A'
p8169
tp8170
Rp8171
ag1
(g41
S'\x00\x00\x00\x00\x12\x87AA'
p8172
tp8173
Rp8174
ag1
(g41
S"\x00\x00\x00\x80'#BA"
p8175
tp8176
Rp8177
ag1
(g41
S'\x00\x00\x00\x00\xb5\x96FA'
p8178
tp8179
Rp8180
ag1
(g41
S'\x00\x00\x00\x80^7HA'
p8181
tp8182
Rp8183
ag1
(g41
S'\x00\x00\x00\x80T\x1aLA'
p8184
tp8185
Rp8186
ag1
(g41
S'\x00\x00\x00\x006\xd9QA'
p8187
tp8188
Rp8189
ag1
(g41
S'\x00\x00\x00\x00\x03\xe8SA'
p8190
tp8191
Rp8192
ag1
(g41
S'\x00\x00\x00@\xbc?QA'
p8193
tp8194
Rp8195
ag1
(g41
S'!\xb0r``CUA'
p8196
tp8197
Rp8198
ag1
(g41
S'\x81\x08q\xb8\xb5\xd9VA'
p8199
tp8200
Rp8201
ag1
(g41
S'ZY\xae\xb7v\xb2YA'
p8202
tp8203
Rp8204
ag1
(g41
S'\xef`\xbc\xca{\xc9[A'
p8205
tp8206
Rp8207
a(lp8208
I2001
aI2002
aI2003
aI2004
aI2005
aI2006
aI2007
aI2008
aI2009
aI2010
aI2011
aI2012
aI2013
aI2014
atp8209
a(g1
(g2
(S'S12'
p8210
I0
I1
tp8211
Rp8212
(I3
S'|'
p8213
NNNI12
I1
I0
tp8214
bS'Turkmenistan'
p8215
tp8216
Rp8217
g1
(g2
(S'S48'
p8218
I0
I1
tp8219
Rp8220
(I3
S'|'
p8221
NNNI48
I1
I0
tp8222
bS'Contraceptive prevalence (% of women ages 15-49)'
p8223
tp8224
Rp8225
(lp8226
(lp8227
tp8228
a(g1
(g2
(S'S24'
p8229
I0
I1
tp8230
Rp8231
(I3
S'|'
p8232
NNNI24
I1
I0
tp8233
bS'Turks and Caicos Islands'
p8234
tp8235
Rp8236
g1
(g2
(S'S48'
p8237
I0
I1
tp8238
Rp8239
(I3
S'|'
p8240
NNNI48
I1
I0
tp8241
bS'Contraceptive prevalence (% of women ages 15-49)'
p8242
tp8243
Rp8244
(lp8245
(lp8246
tp8247
a(g1
(g2
(S'S6'
p8248
I0
I1
tp8249
Rp8250
(I3
S'|'
p8251
NNNI6
I1
I0
tp8252
bS'Tuvalu'
p8253
tp8254
Rp8255
g1
(g2
(S'S48'
p8256
I0
I1
tp8257
Rp8258
(I3
S'|'
p8259
NNNI48
I1
I0
tp8260
bS'Contraceptive prevalence (% of women ages 15-49)'
p8261
tp8262
Rp8263
(lp8264
(lp8265
tp8266
a(g1
(g2
(S'S6'
p8267
I0
I1
tp8268
Rp8269
(I3
S'|'
p8270
NNNI6
I1
I0
tp8271
bS'Uganda'
p8272
tp8273
Rp8274
g1
(g2
(S'S48'
p8275
I0
I1
tp8276
Rp8277
(I3
S'|'
p8278
NNNI48
I1
I0
tp8279
bS'Contraceptive prevalence (% of women ages 15-49)'
p8280
tp8281
Rp8282
(lp8283
(lp8284
tp8285
a(g1
(g2
(S'S7'
p8286
I0
I1
tp8287
Rp8288
(I3
S'|'
p8289
NNNI7
I1
I0
tp8290
bS'Ukraine'
p8291
tp8292
Rp8293
g1
(g2
(S'S48'
p8294
I0
I1
tp8295
Rp8296
(I3
S'|'
p8297
NNNI48
I1
I0
tp8298
bS'Contraceptive prevalence (% of women ages 15-49)'
p8299
tp8300
Rp8301
(lp8302
g1
(g41
S'\x00\x00\x00\x00\x00L\x18A'
p8303
tp8304
Rp8305
ag1
(g41
S'\x00\x00\x00\x00(\xaf!A'
p8306
tp8307
Rp8308
ag1
(g41
S'\x00\x00\x00\x00<E&A'
p8309
tp8310
Rp8311
ag1
(g41
S'\x00\x00\x00\x00\xf27.A'
p8312
tp8313
Rp8314
ag1
(g41
S'\x00\x00\x00\x00\xc4#1A'
p8315
tp8316
Rp8317
ag1
(g41
S'\x00\x00\x00\x00h\x89\x1fA'
p8318
tp8319
Rp8320
ag1
(g41
S'\x00\x00\x00\x00\xaa $A'
p8321
tp8322
Rp8323
ag1
(g41
S'ffff\x81B%A'
p8324
tp8325
Rp8326
ag1
(g41
S'\x14\xaeG\x81\xb1\xda&A'
p8327
tp8328
Rp8329
ag1
(g41
S'\xd7\x86\x8a\xed\xe5\xa8(A'
p8330
tp8331
Rp8332
a(lp8333
I2005
aI2006
aI2007
aI2008
aI2009
aI2010
aI2011
aI2012
aI2013
aI2014
atp8334
a(g1
(g2
(S'S20'
p8335
I0
I1
tp8336
Rp8337
(I3
S'|'
p8338
NNNI20
I1
I0
tp8339
bS'United Arab Emirates'
p8340
tp8341
Rp8342
g1
(g2
(S'S48'
p8343
I0
I1
tp8344
Rp8345
(I3
S'|'
p8346
NNNI48
I1
I0
tp8347
bS'Contraceptive prevalence (% of women ages 15-49)'
p8348
tp8349
Rp8350
(lp8351
g1
(g41
S'\x00\x00\x00@NISA'
p8352
tp8353
Rp8354
ag1
(g41
S'\x00\x00\x00\x00\xdbbSA'
p8355
tp8356
Rp8357
ag1
(g41
S'\x00\x00\x00\x00\x9cfVA'
p8358
tp8359
Rp8360
ag1
(g41
S'\x00\x00\x00\x800\x88ZA'
p8361
tp8362
Rp8363
ag1
(g41
S'\x00\x00\x00\x80P\x85`A'
p8364
tp8365
Rp8366
ag1
(g41
S'\x00\x00\x00\xa0g\xcabA'
p8367
tp8368
Rp8369
ag1
(g41
S'\x00\x00\x00\x00\x01\xebdA'
p8370
tp8371
Rp8372
ag1
(g41
S'\x00\x00\x00\x80\xb9$iA'
p8373
tp8374
Rp8375
ag1
(g41
S'\x00\x00\x00\xe0#%lA'
p8376
tp8377
Rp8378
ag1
(g41
S'\x00\x00\x00\xe0y\x83kA'
p8379
tp8380
Rp8381
ag1
(g41
S'/\xdd$\x86i\xf2lA'
p8382
tp8383
Rp8384
ag1
(g41
S'-\x96"a3\xbcpA'
p8385
tp8386
Rp8387
ag1
(g41
S'\xa4\x94k0\rHqA'
p8388
tp8389
Rp8390
ag1
(g41
S'K\xb7\xc0\xac\xceprA'
p8391
tp8392
Rp8393
a(lp8394
I2001
aI2002
aI2003
aI2004
aI2005
aI2006
aI2007
aI2008
aI2009
aI2010
aI2011
aI2012
aI2013
aI2014
atp8395
a(g1
(g2
(S'S14'
p8396
I0
I1
tp8397
Rp8398
(I3
S'|'
p8399
NNNI14
I1
I0
tp8400
bS'United Kingdom'
p8401
tp8402
Rp8403
g1
(g2
(S'S48'
p8404
I0
I1
tp8405
Rp8406
(I3
S'|'
p8407
NNNI48
I1
I0
tp8408
bS'Contraceptive prevalence (% of women ages 15-49)'
p8409
tp8410
Rp8411
(lp8412
g1
(g41
S'\x00\x00\x00\x80\xeb\x8bXA'
p8413
tp8414
Rp8415
ag1
(g41
S'\x00\x00\x00\x80\xa1\xecZA'
p8416
tp8417
Rp8418
ag1
(g41
S'\x00\x00\x00\x80&\xeeZA'
p8419
tp8420
Rp8421
ag1
(g41
S'\x00\x00\x00\x80\x08\x8fYA'
p8422
tp8423
Rp8424
ag1
(g41
S'\x00\x00\x00@\xc0\xc3_A'
p8425
tp8426
Rp8427
ag1
(g41
S'\x00\x00\x00\xc0<x_A'
p8428
tp8429
Rp8430
ag1
(g41
S'\x00\x00\x00@c\x16`A'
p8431
tp8432
Rp8433
ag1
(g41
S'\x00\x00\x00\xc0ys`A'
p8434
tp8435
Rp8436
ag1
(g41
S'\x11\xc7\xba\xb8zk_A'
p8437
tp8438
Rp8439
ag1
(g41
S'\xf8\xfa{\xfd\x80C]A'
p8440
tp8441
Rp8442
ag1
(g41
S'\xdc\x080Byb`A'
p8443
tp8444
Rp8445
ag1
(g41
S'\xad\xc1\x1c\xef\xcc\x03aA'
p8446
tp8447
Rp8448
ag1
(g41
S'\x8bh\xc00/4`A'
p8449
tp8450
Rp8451
ag1
(g41
S')\x00\x0b\x12\xe4{aA'
p8452
tp8453
Rp8454
a(lp8455
I2001
aI2002
aI2003
aI2004
aI2005
aI2006
aI2007
aI2008
aI2009
aI2010
aI2011
aI2012
aI2013
aI2014
atp8456
a(g1
(g2
(S'S13'
p8457
I0
I1
tp8458
Rp8459
(I3
S'|'
p8460
NNNI13
I1
I0
tp8461
bS'United States'
p8462
tp8463
Rp8464
g1
(g2
(S'S48'
p8465
I0
I1
tp8466
Rp8467
(I3
S'|'
p8468
NNNI48
I1
I0
tp8469
bS'Contraceptive prevalence (% of women ages 15-49)'
p8470
tp8471
Rp8472
(lp8473
g1
(g41
S'\x00\x00\x00\x00.\xfdzA'
p8474
tp8475
Rp8476
ag1
(g41
S'\x00\x00\x00\x80\xe3\nzA'
p8477
tp8478
Rp8479
ag1
(g41
S'\x00\x00\x00\xa0UM|A'
p8480
tp8481
Rp8482
ag1
(g41
S'\x00\x00\x00\xc0\xd4,\x7fA'
p8483
tp8484
Rp8485
ag1
(g41
S'\x00\x00\x00\xe0s\xa4\x80A'
p8486
tp8487
Rp8488
ag1
(g41
S'\x00\x00\x00xq[\x82A'
p8489
tp8490
Rp8491
ag1
(g41
S'\x00\x00\x000G\x80\x83A'
p8492
tp8493
Rp8494
ag1
(g41
S'\x00\x00\x00\xf0\x8ea\x85A'
p8495
tp8496
Rp8497
ag1
(g41
S'\x8c\xdbh\xd079\x84A'
p8498
tp8499
Rp8500
ag1
(g41
S'\x10X97\xc3\xcf\x81A'
p8501
tp8502
Rp8503
ag1
(g41
S"\x19\x04VI'0\x84A"
p8504
tp8505
Rp8506
ag1
(g41
S'h\x04;(\xb4v\x84A'
p8507
tp8508
Rp8509
ag1
(g41
S'Z>\x0cR\xe9\x14\x85A'
p8510
tp8511
Rp8512
ag1
(g41
S'\xa5\xdd#\x91D\x1a\x85A'
p8513
tp8514
Rp8515
a(lp8516
I2001
aI2002
aI2003
aI2004
aI2005
aI2006
aI2007
aI2008
aI2009
aI2010
aI2011
aI2012
aI2013
aI2014
atp8517
a(g1
(g2
(S'S19'
p8518
I0
I1
tp8519
Rp8520
(I3
S'|'
p8521
NNNI19
I1
I0
tp8522
bS'Upper middle income'
p8523
tp8524
Rp8525
g1
(g2
(S'S48'
p8526
I0
I1
tp8527
Rp8528
(I3
S'|'
p8529
NNNI48
I1
I0
tp8530
bS'Contraceptive prevalence (% of women ages 15-49)'
p8531
tp8532
Rp8533
(lp8534
g1
(g41
S'\x00\x00\x00(\x8d\xa8\x8dA'
p8535
tp8536
Rp8537
ag1
(g41
S'\x00\x00\x00\xc8\x9c=\x90A'
p8538
tp8539
Rp8540
ag1
(g41
S'\x00\x00\x00\x08N\x10\x94A'
p8541
tp8542
Rp8543
ag1
(g41
S'\x00\x00\x00\x0c=\xa1\x96A'
p8544
tp8545
Rp8546
ag1
(g41
S'\x00\x00\x00L\xa6\xce\x9aA'
p8547
tp8548
Rp8549
ag1
(g41
S'\x00\x00\x00\x0cN\x01\x9aA'
p8550
tp8551
Rp8552
ag1
(g41
S'\x00\x00\x00X\xf5\xb8\x9fA'
p8553
tp8554
Rp8555
ag1
(g41
S'\x00\x00\x00\xa0?\x0c\xa3A'
p8556
tp8557
Rp8558
ag1
(g41
S'\x8a\x1fcvOM\xa5A'
p8559
tp8560
Rp8561
ag1
(g41
S'4h\xb0S+\x01\xa4A'
p8562
tp8563
Rp8564
ag1
(g41
S'#,\x02\x16\x07\xb7\xa7A'
p8565
tp8566
Rp8567
ag1
(g41
S'6[i\x82\x03J\xaaA'
p8568
tp8569
Rp8570
ag1
(g41
S'\x86q\xf7\x07\x0f\xaf\xacA'
p8571
tp8572
Rp8573
ag1
(g41
S'\xb97wY\xb4\xec\xaeA'
p8574
tp8575
Rp8576
a(lp8577
I2001
aI2002
aI2003
aI2004
aI2005
aI2006
aI2007
aI2008
aI2009
aI2010
aI2011
aI2012
aI2013
aI2014
atp8578
a(g1
(g2
(S'S7'
p8579
I0
I1
tp8580
Rp8581
(I3
S'|'
p8582
NNNI7
I1
I0
tp8583
bS'Uruguay'
p8584
tp8585
Rp8586
g1
(g2
(S'S48'
p8587
I0
I1
tp8588
Rp8589
(I3
S'|'
p8590
NNNI48
I1
I0
tp8591
bS'Contraceptive prevalence (% of women ages 15-49)'
p8592
tp8593
Rp8594
(lp8595
g1
(g41
S'\x00\x00\x00\x00$i\x12A'
p8596
tp8597
Rp8598
ag1
(g41
S'\x00\x00\x00\x00\x0e4"A'
p8599
tp8600
Rp8601
ag1
(g41
S'\x00\x00\x00\x00\x92\x9b$A'
p8602
tp8603
Rp8604
ag1
(g41
S'\x00\x00\x00\x00\xf4\xf4!A'
p8605
tp8606
Rp8607
ag1
(g41
S'\x00\x00\x00\x00\xa0\x81$A'
p8608
tp8609
Rp8610
ag1
(g41
S'\x00\x00\x00\x00\xd8G*A'
p8611
tp8612
Rp8613
ag1
(g41
S'\x00\x00\x00\x00\xd0\xfa&A'
p8614
tp8615
Rp8616
ag1
(g41
S'\x00\x00\x00\x00\x90F*A'
p8617
tp8618
Rp8619
a(lp8620
I2002
aI2008
aI2009
aI2010
aI2011
aI2012
aI2013
aI2014
atp8621
a(g1
(g2
(S'S10'
p8622
I0
I1
tp8623
Rp8624
(I3
S'|'
p8625
NNNI10
I1
I0
tp8626
bS'Uzbekistan'
p8627
tp8628
Rp8629
g1
(g2
(S'S48'
p8630
I0
I1
tp8631
Rp8632
(I3
S'|'
p8633
NNNI48
I1
I0
tp8634
bS'Contraceptive prevalence (% of women ages 15-49)'
p8635
tp8636
Rp8637
(lp8638
(lp8639
tp8640
a(g1
(g2
(S'S7'
p8641
I0
I1
tp8642
Rp8643
(I3
S'|'
p8644
NNNI7
I1
I0
tp8645
bS'Vanuatu'
p8646
tp8647
Rp8648
g1
(g2
(S'S48'
p8649
I0
I1
tp8650
Rp8651
(I3
S'|'
p8652
NNNI48
I1
I0
tp8653
bS'Contraceptive prevalence (% of women ages 15-49)'
p8654
tp8655
Rp8656
(lp8657
(lp8658
tp8659
a(g1
(g2
(S'S7'
p8660
I0
I1
tp8661
Rp8662
(I3
S'|'
p8663
NNNI7
I1
I0
tp8664
bS'Vietnam'
p8665
tp8666
Rp8667
g1
(g2
(S'S48'
p8668
I0
I1
tp8669
Rp8670
(I3
S'|'
p8671
NNNI48
I1
I0
tp8672
bS'Contraceptive prevalence (% of women ages 15-49)'
p8673
tp8674
Rp8675
(lp8676
g1
(g41
S"\x00\x00\x00\x00\xa4'2A"
p8677
tp8678
Rp8679
ag1
(g41
S'\x00\x00\x00\x00;\xb13A'
p8680
tp8681
Rp8682
ag1
(g41
S'\x00\x00\x00\x00\xd6\t;A'
p8683
tp8684
Rp8685
ag1
(g41
S'\x00\x00\x00\x00+\x11=A'
p8686
tp8687
Rp8688
ag1
(g41
S'\x00\x00\x00\x00\x90WAA'
p8689
tp8690
Rp8691
ag1
(g41
S'\x00\x00\x00\x80\x07\\CA'
p8692
tp8693
Rp8694
ag1
(g41
S'\x00\x00\x00\x00\xaf\xe2FA'
p8695
tp8696
Rp8697
ag1
(g41
S'\x00\x00\x00\x005\x96NA'
p8698
tp8699
Rp8700
ag1
(g41
S'\x00\x00\x00\xc0\xb8\xc2PA'
p8701
tp8702
Rp8703
ag1
(g41
S'\x00\x00\x00\x80\xe5\xd4RA'
p8704
tp8705
Rp8706
ag1
(g41
S'\x00\x00\x00\xc0W\xd3VA'
p8707
tp8708
Rp8709
ag1
(g41
S'V\x0e-Z;oZA'
p8710
tp8711
Rp8712
ag1
(g41
S'9EGh\x8fhFA'
p8713
tp8714
Rp8715
ag1
(g41
S'\x18\xbf\xdd\xcc\xae\xfa^A'
p8716
tp8717
Rp8718
a(lp8719
I2001
aI2002
aI2003
aI2004
aI2005
aI2006
aI2007
aI2008
aI2009
aI2010
aI2011
aI2012
aI2013
aI2014
atp8720
a(g1
(g2
(S'S21'
p8721
I0
I1
tp8722
Rp8723
(I3
S'|'
p8724
NNNI21
I1
I0
tp8725
bS'Virgin Islands (U.S.)'
p8726
tp8727
Rp8728
g1
(g2
(S'S48'
p8729
I0
I1
tp8730
Rp8731
(I3
S'|'
p8732
NNNI48
I1
I0
tp8733
bS'Contraceptive prevalence (% of women ages 15-49)'
p8734
tp8735
Rp8736
(lp8737
(lp8738
tp8739
a(g1
(g2
(S'S18'
p8740
I0
I1
tp8741
Rp8742
(I3
S'|'
p8743
NNNI18
I1
I0
tp8744
bS'West Bank and Gaza'
p8745
tp8746
Rp8747
g1
(g2
(S'S48'
p8748
I0
I1
tp8749
Rp8750
(I3
S'|'
p8751
NNNI48
I1
I0
tp8752
bS'Contraceptive prevalence (% of women ages 15-49)'
p8753
tp8754
Rp8755
(lp8756
(lp8757
tp8758
a(g1
(g2
(S'S5'
p8759
I0
I1
tp8760
Rp8761
(I3
S'|'
p8762
NNNI5
I1
I0
tp8763
bS'World'
p8764
tp8765
Rp8766
g1
(g2
(S'S48'
p8767
I0
I1
tp8768
Rp8769
(I3
S'|'
p8770
NNNI48
I1
I0
tp8771
bS'Contraceptive prevalence (% of women ages 15-49)'
p8772
tp8773
Rp8774
(lp8775
g1
(g41
S'\x00\x00\x00\x10\x93\xcb\xaaA'
p8776
tp8777
Rp8778
ag1
(g41
S'\x00\x00\x00\x04\xef\x05\xacA'
p8779
tp8780
Rp8781
ag1
(g41
S'\x00\x00\x00\xfe\rh\xafA'
p8782
tp8783
Rp8784
ag1
(g41
S'\x00\x00\x00"\xcd\xb3\xb1A'
p8785
tp8786
Rp8787
ag1
(g41
S'\x00\x00\x00\xd6\x16,\xb4A'
p8788
tp8789
Rp8790
ag1
(g41
S'\x00\x00\x00rem\xb6A'
p8791
tp8792
Rp8793
ag1
(g41
S'\x00\x00\x00c!\xd7\xb8A'
p8794
tp8795
Rp8796
ag1
(g41
S'\x00\x00\x00\xc5\x082\xbdA'
p8797
tp8798
Rp8799
ag1
(g41
S's\xd7\x12\r\xdc\xc3\xbeA'
p8800
tp8801
Rp8802
ag1
(g41
S'\xc1\xc7H\x15\xd2$\xbcA'
p8803
tp8804
Rp8805
ag1
(g41
S'\xb5\xfc:/\x06)\xc0A'
p8806
tp8807
Rp8808
ag1
(g41
S'k\xf0\xa8\xa2$\x82\xc1A'
p8809
tp8810
Rp8811
ag1
(g41
S'*\xc70E\xda`\xc2A'
p8812
tp8813
Rp8814
ag1
(g41
S'\x05\x18\xd4\xfb|g\xc3A'
p8815
tp8816
Rp8817
a(lp8818
I2001
aI2002
aI2003
aI2004
aI2005
aI2006
aI2007
aI2008
aI2009
aI2010
aI2011
aI2012
aI2013
aI2014
atp8819
a(g1
(g2
(S'S6'
p8820
I0
I1
tp8821
Rp8822
(I3
S'|'
p8823
NNNI6
I1
I0
tp8824
bS'Zambia'
p8825
tp8826
Rp8827
g1
(g2
(S'S48'
p8828
I0
I1
tp8829
Rp8830
(I3
S'|'
p8831
NNNI48
I1
I0
tp8832
bS'Contraceptive prevalence (% of women ages 15-49)'
p8833
tp8834
Rp8835
(lp8836
(lp8837
tp8838
a(g1
(g2
(S'S8'
p8839
I0
I1
tp8840
Rp8841
(I3
S'|'
p8842
NNNI8
I1
I0
tp8843
bS'Zimbabwe'
p8844
tp8845
Rp8846
g1
(g2
(S'S48'
p8847
I0
I1
tp8848
Rp8849
(I3
S'|'
p8850
NNNI48
I1
I0
tp8851
bS'Contraceptive prevalence (% of women ages 15-49)'
p8852
tp8853
Rp8854
(lp8855
(lp8856
tp8857
a.