(lp0
(cnumpy.core.multiarray
scalar
p1
(cnumpy
dtype
p2
(S'S11'
p3
I0
I1
tp4
Rp5
(I3
S'|'
p6
NNNI11
I1
I0
tp7
bS'Afghanistan'
p8
tp9
Rp10
g1
(g2
(S'S60'
p11
I0
I1
tp12
Rp13
(I3
S'|'
p14
NNNI60
I1
I0
tp15
bS'Improved sanitation facilities (% of population with access)'
p16
tp17
Rp18
(lp19
g1
(g2
(S'f8'
p20
I0
I1
tp21
Rp22
(I3
S'<'
p23
NNNI-1
I-1
I0
tp24
bS'r\xbf\x9fl\xaf\xf4\xebA'
p25
tp26
Rp27
ag1
(g22
S'\x1f\xf4P\xe5\x1d\xa4\xf0A'
p28
tp29
Rp30
ag1
(g22
S'W\xc3q\xc4\xc3z\xf9A'
p31
tp32
Rp33
ag1
(g22
S',T{L\xbb\x8f\xfeA'
p34
tp35
Rp36
ag1
(g22
S'\x9a\xf7\x91\xb9S#\x06B'
p37
tp38
Rp39
ag1
(g22
S'U\xb0\xa7\xb3\x04\x90\x05B'
p40
tp41
Rp42
a(lp43
I2011
aI2012
aI2013
aI2014
aI2015
aI2016
atp44
a(g1
(g2
(S'S7'
p45
I0
I1
tp46
Rp47
(I3
S'|'
p48
NNNI7
I1
I0
tp49
bS'Albania'
p50
tp51
Rp52
g1
(g2
(S'S60'
p53
I0
I1
tp54
Rp55
(I3
S'|'
p56
NNNI60
I1
I0
tp57
bS'Improved sanitation facilities (% of population with access)'
p58
tp59
Rp60
(lp61
g1
(g22
S'\x02\xd9U}\xbcx\xeaA'
p62
tp63
Rp64
ag1
(g22
S'\x87\x16m6\xa6\xdc\xeeA'
p65
tp66
Rp67
ag1
(g22
S'<\x14Z\xce\xbb9\xf4A'
p68
tp69
Rp70
ag1
(g22
S'Tt\x08\x11\xce\xa1\xfaA'
p71
tp72
Rp73
ag1
(g22
S'`v\x89\xd0b\x94\xf8A'
p74
tp75
Rp76
ag1
(g22
S'\x91\xa7)\x08\xb4d\xf7A'
p77
tp78
Rp79
ag1
(g22
S'\x99ul2=\x1d\xfaA'
p80
tp81
Rp82
ag1
(g22
S'\x82(-$(\x0e\xf7A'
p83
tp84
Rp85
ag1
(g22
S'\xf3\xbct\x11\xee\x81\xf7A'
p86
tp87
Rp88
a(lp89
I2008
aI2009
aI2010
aI2011
aI2012
aI2013
aI2014
aI2015
aI2016
atp90
a(g1
(g2
(S'S7'
p91
I0
I1
tp92
Rp93
(I3
S'|'
p94
NNNI7
I1
I0
tp95
bS'Algeria'
p96
tp97
Rp98
g1
(g2
(S'S60'
p99
I0
I1
tp100
Rp101
(I3
S'|'
p102
NNNI60
I1
I0
tp103
bS'Improved sanitation facilities (% of population with access)'
p104
tp105
Rp106
(lp107
g1
(g22
S'\x91\xfe\xffJ\xee\x03\x1dB'
p108
tp109
Rp110
ag1
(g22
S'U\x01\x00a\xe8.\x1eB'
p111
tp112
Rp113
ag1
(g22
S'\xde\x11\xd5"\xac&"B'
p114
tp115
Rp116
ag1
(g22
S'\xc7K\xbd+D\xcd)B'
p117
tp118
Rp119
ag1
(g22
S'V?\x07t\xd3\xa9)B'
p120
tp121
Rp122
ag1
(g22
S'1h\xc4\x02\xe0\xe5)B'
p123
tp124
Rp125
ag1
(g22
S'"\xbd\x05p\xb3\xb6.B'
p126
tp127
Rp128
ag1
(g22
S'\xb9\xec\\\xa3DU0B'
p129
tp130
Rp131
ag1
(g22
S'v\xd0a\xac\x10)1B'
p132
tp133
Rp134
a(lp135
I2008
aI2009
aI2010
aI2011
aI2012
aI2013
aI2014
aI2015
aI2016
atp136
a(g1
(g2
(S'S14'
p137
I0
I1
tp138
Rp139
(I3
S'|'
p140
NNNI14
I1
I0
tp141
bS'American Samoa'
p142
tp143
Rp144
g1
(g2
(S'S60'
p145
I0
I1
tp146
Rp147
(I3
S'|'
p148
NNNI60
I1
I0
tp149
bS'Improved sanitation facilities (% of population with access)'
p150
tp151
Rp152
(lp153
(lp154
tp155
a(g1
(g2
(S'S7'
p156
I0
I1
tp157
Rp158
(I3
S'|'
p159
NNNI7
I1
I0
tp160
bS'Andorra'
p161
tp162
Rp163
g1
(g2
(S'S60'
p164
I0
I1
tp165
Rp166
(I3
S'|'
p167
NNNI60
I1
I0
tp168
bS'Improved sanitation facilities (% of population with access)'
p169
tp170
Rp171
(lp172
(lp173
tp174
a(g1
(g2
(S'S6'
p175
I0
I1
tp176
Rp177
(I3
S'|'
p178
NNNI6
I1
I0
tp179
bS'Angola'
p180
tp181
Rp182
g1
(g2
(S'S60'
p183
I0
I1
tp184
Rp185
(I3
S'|'
p186
NNNI60
I1
I0
tp187
bS'Improved sanitation facilities (% of population with access)'
p188
tp189
Rp190
(lp191
g1
(g22
S' \x12\xc2\x80\xd7\xe1\x11B'
p192
tp193
Rp194
ag1
(g22
S'\x9a\x99}\xad\x0e\x0f\x15B'
p195
tp196
Rp197
ag1
(g22
S'\x97p\x18\xe4\xda\x13 B'
p198
tp199
Rp200
ag1
(g22
S'\x80W=\x91\x16\xaa*B'
p201
tp202
Rp203
ag1
(g22
S'\x00\x00\xb80|\xb7&B'
p204
tp205
Rp206
ag1
(g22
S')\\\x16\xc4\x8bR$B'
p207
tp208
Rp209
ag1
(g22
S'\x10\xb8\xb4\xac\x1c\x0e)B'
p210
tp211
Rp212
ag1
(g22
S'tf`\xa9nQ*B'
p213
tp214
Rp215
ag1
(g22
S'\xdb*Ki\xad\xe5+B'
p216
tp217
Rp218
a(lp219
I2008
aI2009
aI2010
aI2011
aI2012
aI2013
aI2014
aI2015
aI2016
atp220
a(g1
(g2
(S'S19'
p221
I0
I1
tp222
Rp223
(I3
S'|'
p224
NNNI19
I1
I0
tp225
bS'Antigua and Barbuda'
p226
tp227
Rp228
g1
(g2
(S'S60'
p229
I0
I1
tp230
Rp231
(I3
S'|'
p232
NNNI60
I1
I0
tp233
bS'Improved sanitation facilities (% of population with access)'
p234
tp235
Rp236
(lp237
g1
(g22
S'\xf9\x12\xda\xe9\x7f"\xc6A'
p238
tp239
Rp240
ag1
(g22
S'@h/\xa9a\x94\xcaA'
p241
tp242
Rp243
ag1
(g22
S'\xfd\xd9K9\x02 \xceA'
p244
tp245
Rp246
ag1
(g22
S'C\x1c\xc7 \xb1\xad\xceA'
p247
tp248
Rp249
ag1
(g22
S'\xf1\x12\xda\xb2\xb5\xf5\xc6A'
p250
tp251
Rp252
ag1
(g22
S'$\xb4\x97\xbe\x07\x81\xc5A'
p253
tp254
Rp255
ag1
(g22
S'\xbdq\x1c`\x83\x9a\xc4A'
p256
tp257
Rp258
ag1
(g22
S'\x1d\xc7q\xe1&T\xc6A'
p259
tp260
Rp261
ag1
(g22
S'\xf2%\xb4:A\x16\xc7A'
p262
tp263
Rp264
a(lp265
I2008
aI2009
aI2010
aI2011
aI2012
aI2013
aI2014
aI2015
aI2016
atp266
a(g1
(g2
(S'S10'
p267
I0
I1
tp268
Rp269
(I3
S'|'
p270
NNNI10
I1
I0
tp271
bS'Arab World'
p272
tp273
Rp274
g1
(g2
(S'S60'
p275
I0
I1
tp276
Rp277
(I3
S'|'
p278
NNNI60
I1
I0
tp279
bS'Improved sanitation facilities (% of population with access)'
p280
tp281
Rp282
(lp283
g1
(g22
S'\xd3\xcd\x1a\xbe\xa2a]B'
p284
tp285
Rp286
ag1
(g22
S'P\x1d%q4<aB'
p287
tp288
Rp289
ag1
(g22
S'\xac$T\xdf\nGeB'
p290
tp291
Rp292
ag1
(g22
S'%\x96\x1aek\xccjB'
p293
tp294
Rp295
ag1
(g22
S'\xf0\xabR\xb9\xe7\x07hB'
p296
tp297
Rp298
ag1
(g22
S'\xf2"#4c\x1bjB'
p299
tp300
Rp301
ag1
(g22
S'\x91\xbdT5\xaa\x93lB'
p302
tp303
Rp304
ag1
(g22
S'{$$\xeeE\xceoB'
p305
tp306
Rp307
ag1
(g22
S'\xecm\xad\x0b\xfb\xe8pB'
p308
tp309
Rp310
a(lp311
I2008
aI2009
aI2010
aI2011
aI2012
aI2013
aI2014
aI2015
aI2016
atp312
a(g1
(g2
(S'S9'
p313
I0
I1
tp314
Rp315
(I3
S'|'
p316
NNNI9
I1
I0
tp317
bS'Argentina'
p318
tp319
Rp320
g1
(g2
(S'S60'
p321
I0
I1
tp322
Rp323
(I3
S'|'
p324
NNNI60
I1
I0
tp325
bS'Improved sanitation facilities (% of population with access)'
p326
tp327
Rp328
(lp329
g1
(g22
S'\x00\x00\x00\xc1\xff\x9c%B'
p330
tp331
Rp332
ag1
(g22
S'\x00\x00@\xbbO\x97(B'
p333
tp334
Rp335
ag1
(g22
S'\x00\x00 \x1a"\xa3.B'
p336
tp337
Rp338
ag1
(g22
S'\x00\x00\x80\xd0U\xdd2B'
p339
tp340
Rp341
ag1
(g22
S',\x94\xaa\x15\xf6\xbb,B'
p342
tp343
Rp344
ag1
(g22
S'\xcab\x8cgB<3B'
p345
tp346
Rp347
ag1
(g22
S'\x8f\x82W%4P8B'
p348
tp349
Rp350
ag1
(g22
S'\x14^\xabH/\xe26B'
p351
tp352
Rp353
ag1
(g22
S'\x04v`\xf7\xfe\xea7B'
p354
tp355
Rp356
a(lp357
I2008
aI2009
aI2010
aI2011
aI2012
aI2013
aI2014
aI2015
aI2016
atp358
a(g1
(g2
(S'S7'
p359
I0
I1
tp360
Rp361
(I3
S'|'
p362
NNNI7
I1
I0
tp363
bS'Armenia'
p364
tp365
Rp366
g1
(g2
(S'S60'
p367
I0
I1
tp368
Rp369
(I3
S'|'
p370
NNNI60
I1
I0
tp371
bS'Improved sanitation facilities (% of population with access)'
p372
tp373
Rp374
(lp375
g1
(g22
S'\xd69{\xd5\x12\xc7\xe2A'
p376
tp377
Rp378
ag1
(g22
S'\xb9\x8do\xd8\xc2\x99\xe6A'
p379
tp380
Rp381
ag1
(g22
S'\x9a%e\x7f@\xcc\xefA'
p382
tp383
Rp384
ag1
(g22
S'\xf6E\xca1\r.\xf4A'
p385
tp386
Rp387
ag1
(g22
S'\x8b\xec N?/\xf0A'
p388
tp389
Rp390
ag1
(g22
S'\xc7:q\x88Vp\xf2A'
p391
tp392
Rp393
ag1
(g22
S'\x14"$\xfe\xdb*\xf4A'
p394
tp395
Rp396
ag1
(g22
S'e\xb6>\xfd\xed\x82\xf4A'
p397
tp398
Rp399
ag1
(g22
S'J\xfb\x7f!`\x12\xf5A'
p400
tp401
Rp402
a(lp403
I2008
aI2009
aI2010
aI2011
aI2012
aI2013
aI2014
aI2015
aI2016
atp404
a(g1
(g2
(S'S5'
p405
I0
I1
tp406
Rp407
(I3
S'|'
p408
NNNI5
I1
I0
tp409
bS'Aruba'
p410
tp411
Rp412
g1
(g2
(S'S60'
p413
I0
I1
tp414
Rp415
(I3
S'|'
p416
NNNI60
I1
I0
tp417
bS'Improved sanitation facilities (% of population with access)'
p418
tp419
Rp420
(lp421
g1
(g22
S'0;\x1d\xf7\xaf\x98\xf4A'
p422
tp423
Rp424
ag1
(g22
S'BO\xbf\xfa\xf9\t\xf5A'
p425
tp426
Rp427
ag1
(g22
S'aT\xa7)\xf1\xca\xf7A'
p428
tp429
Rp430
ag1
(g22
S'"\xfd\xf5|%\x14\xfaA'
p431
tp432
Rp433
ag1
(g22
S'\x16M\x0e\x12\xbe\x8a\xe8A'
p434
tp435
Rp436
ag1
(g22
S'\x90\x83\xcc;\x13\xd6\xe0A'
p437
tp438
Rp439
ag1
(g22
S'@\x18\xd5\xf1\xc7?\xfaA'
p440
tp441
Rp442
ag1
(g22
S'\x1e\x1b\xdf\xfc\x11i\xe6A'
p443
tp444
Rp445
ag1
(g22
S'D\xfa\xeb\t\x90\xf5\xe1A'
p446
tp447
Rp448
a(lp449
I2008
aI2009
aI2010
aI2011
aI2012
aI2013
aI2014
aI2015
aI2016
atp450
a(g1
(g2
(S'S9'
p451
I0
I1
tp452
Rp453
(I3
S'|'
p454
NNNI9
I1
I0
tp455
bS'Australia'
p456
tp457
Rp458
g1
(g2
(S'S60'
p459
I0
I1
tp460
Rp461
(I3
S'|'
p462
NNNI60
I1
I0
tp463
bS'Improved sanitation facilities (% of population with access)'
p464
tp465
Rp466
(lp467
g1
(g22
S'\x89\x11\xbf\x91\x0fNGB'
p468
tp469
Rp470
ag1
(g22
S'\xd7S\x91\x82\x12\xa5JB'
p471
tp472
Rp473
ag1
(g22
S'\x17Q\x11\xc2-\x96PB'
p474
tp475
Rp476
ag1
(g22
S'B0.\xaap(SB'
p477
tp478
Rp479
ag1
(g22
S'H\xb1\xd7\x7f\xfa\xecOB'
p480
tp481
Rp482
ag1
(g22
S'\x000n\xd3)\xfdSB'
p483
tp484
Rp485
ag1
(g22
S'\x9e/A\xc3&\x12XB'
p486
tp487
Rp488
ag1
(g22
S'}_E\r\x11\xabXB'
p489
tp490
Rp491
ag1
(g22
S'\\W\xb2UM_WB'
p492
tp493
Rp494
a(lp495
I2008
aI2009
aI2010
aI2011
aI2012
aI2013
aI2014
aI2015
aI2016
atp496
a(g1
(g2
(S'S7'
p497
I0
I1
tp498
Rp499
(I3
S'|'
p500
NNNI7
I1
I0
tp501
bS'Austria'
p502
tp503
Rp504
g1
(g2
(S'S60'
p505
I0
I1
tp506
Rp507
(I3
S'|'
p508
NNNI60
I1
I0
tp509
bS'Improved sanitation facilities (% of population with access)'
p510
tp511
Rp512
(lp513
g1
(g22
S'XY\x04\x16:\x98DB'
p514
tp515
Rp516
ag1
(g22
S'\x96\x83\x84\xbb,\xcbFB'
p517
tp518
Rp519
ag1
(g22
S'\xbcd!\xd0\xeb\xe7KB'
p520
tp521
Rp522
ag1
(g22
S'\xe7\xeb\x83\xc0I;NB'
p523
tp524
Rp525
ag1
(g22
S'\xdd\x94\xf4\r\x89KHB'
p526
tp527
Rp528
ag1
(g22
S"'!\x19\xbb\xcf\xdeIB"
p529
tp530
Rp531
ag1
(g22
S"\xfa\x0et\x12\x1b'OB"
p532
tp533
Rp534
ag1
(g22
S'\xd3\xbd&+\x079MB'
p535
tp536
Rp537
ag1
(g22
S'h\x81>\xa4=\xc8MB'
p538
tp539
Rp540
a(lp541
I2008
aI2009
aI2010
aI2011
aI2012
aI2013
aI2014
aI2015
aI2016
atp542
a(g1
(g2
(S'S10'
p543
I0
I1
tp544
Rp545
(I3
S'|'
p546
NNNI10
I1
I0
tp547
bS'Azerbaijan'
p548
tp549
Rp550
g1
(g2
(S'S60'
p551
I0
I1
tp552
Rp553
(I3
S'|'
p554
NNNI60
I1
I0
tp555
bS'Improved sanitation facilities (% of population with access)'
p556
tp557
Rp558
(lp559
g1
(g22
S'\x00\x00\xc0\xf8f \x00B'
p560
tp561
Rp562
ag1
(g22
S'\x00\x00\x80\xb1#7\x04B'
p563
tp564
Rp565
ag1
(g22
S'\x00\x00@\xa6\xc9R\x0bB'
p566
tp567
Rp568
ag1
(g22
S'\x00\x00@\x10F\xd1\x0fB'
p569
tp570
Rp571
ag1
(g22
S'\x00\x00\xc05\xc6\xcf\tB'
p572
tp573
Rp574
ag1
(g22
S'\x00\x00\xc0\xe0q\xc8\nB'
p575
tp576
Rp577
ag1
(g22
S'\x00\x00`\xde~\x1a\x14B'
p578
tp579
Rp580
ag1
(g22
S'\x00\x00@\xdb\xae>\x15B'
p581
tp582
Rp583
ag1
(g22
S'\x00\x00\x00e\xf8\xf4\x16B'
p584
tp585
Rp586
a(lp587
I2008
aI2009
aI2010
aI2011
aI2012
aI2013
aI2014
aI2015
aI2016
atp588
a(g1
(g2
(S'S7'
p589
I0
I1
tp590
Rp591
(I3
S'|'
p592
NNNI7
I1
I0
tp593
bS'Bahrain'
p594
tp595
Rp596
g1
(g2
(S'S60'
p597
I0
I1
tp598
Rp599
(I3
S'|'
p600
NNNI60
I1
I0
tp601
bS'Improved sanitation facilities (% of population with access)'
p602
tp603
Rp604
(lp605
g1
(g22
S'\xa8\xc6F\xd2\x88E\rB'
p606
tp607
Rp608
ag1
(g22
S'\xbe\xf0\xa6r\xab;\x12B'
p609
tp610
Rp611
ag1
(g22
S'\x8c\xf9m\x9d\xd2\xb2\x15B'
p612
tp613
Rp614
ag1
(g22
S'\x1f4\x86\\\xb6\x9e\x16B'
p615
tp616
Rp617
ag1
(g22
S'E\xd8)\xf5z\xbf\x0cB'
p618
tp619
Rp620
ag1
(g22
S'\x9f\xab\xae\xc8\xbc\x8b\x0fB'
p621
tp622
Rp623
ag1
(g22
S'\x01\x9e\r~7\xca\x16B'
p624
tp625
Rp626
ag1
(g22
S'y\x98\\W\xef\x12\x14B'
p627
tp628
Rp629
ag1
(g22
S'\xe5a\xf2e\xfbB\x15B'
p630
tp631
Rp632
a(lp633
I2008
aI2009
aI2010
aI2011
aI2012
aI2013
aI2014
aI2015
aI2016
atp634
a(g1
(g2
(S'S10'
p635
I0
I1
tp636
Rp637
(I3
S'|'
p638
NNNI10
I1
I0
tp639
bS'Bangladesh'
p640
tp641
Rp642
g1
(g2
(S'S60'
p643
I0
I1
tp644
Rp645
(I3
S'|'
p646
NNNI60
I1
I0
tp647
bS'Improved sanitation facilities (% of population with access)'
p648
tp649
Rp650
(lp651
g1
(g22
S'\xf2R\xd0\xe6\xe7\xbe\rB'
p652
tp653
Rp654
ag1
(g22
S'\x05\xe3\x9a\xc37#\x11B'
p655
tp656
Rp657
ag1
(g22
S'\xf4\xfd\xc8\xbd\xa0\xa1\x14B'
p658
tp659
Rp660
ag1
(g22
S'~]\xb9,`r\x18B'
p661
tp662
Rp663
ag1
(g22
S'\xa0\xc9\x9d\xad\xa5D\x17B'
p664
tp665
Rp666
ag1
(g22
S'T#\xa66l\xf5\x1fB'
p667
tp668
Rp669
ag1
(g22
S'\x1feS\x8d\x95:#B'
p670
tp671
Rp672
ag1
(g22
S'z\xc5g\xfd\x80~"B'
p673
tp674
Rp675
ag1
(g22
S'\xde\x93\xda!\xfdc$B'
p676
tp677
Rp678
a(lp679
I2008
aI2009
aI2010
aI2011
aI2012
aI2013
aI2014
aI2015
aI2016
atp680
a(g1
(g2
(S'S8'
p681
I0
I1
tp682
Rp683
(I3
S'|'
p684
NNNI8
I1
I0
tp685
bS'Barbados'
p686
tp687
Rp688
g1
(g2
(S'S60'
p689
I0
I1
tp690
Rp691
(I3
S'|'
p692
NNNI60
I1
I0
tp693
bS'Improved sanitation facilities (% of population with access)'
p694
tp695
Rp696
(lp697
g1
(g22
S'a\xfd\xbe\xe4\xee_\xe2A'
p698
tp699
Rp700
ag1
(g22
S'\x00\x004T\x11\xd5\xe3A'
p701
tp702
Rp703
ag1
(g22
S'\xe1(`\x83"\x89\xe4A'
p704
tp705
Rp706
ag1
(g22
S'3\xe1>\x99\xc9L\xe6A'
p707
tp708
Rp709
ag1
(g22
S'\xa4pM\xc3\x9e\xed\xe2A'
p710
tp711
Rp712
ag1
(g22
S'\x9c3\x0b\x873I\xe3A'
p713
tp714
Rp715
a(lp716
I2008
aI2009
aI2010
aI2011
aI2012
aI2013
atp717
a(g1
(g2
(S'S7'
p718
I0
I1
tp719
Rp720
(I3
S'|'
p721
NNNI7
I1
I0
tp722
bS'Belarus'
p723
tp724
Rp725
g1
(g2
(S'S60'
p726
I0
I1
tp727
Rp728
(I3
S'|'
p729
NNNI60
I1
I0
tp730
bS'Improved sanitation facilities (% of population with access)'
p731
tp732
Rp733
(lp734
g1
(g22
S'\x00\x00\x00\xe6\x0e7\x10B'
p735
tp736
Rp737
ag1
(g22
S'\x00\x00\x80\xa0\xd4\xcc\x15B'
p738
tp739
Rp740
ag1
(g22
S'\x00\x00\x00\xbd\x91?\x1cB'
p741
tp742
Rp743
ag1
(g22
S'\x00\x00\x80\xe7\x9f\x8f#B'
p744
tp745
Rp746
ag1
(g22
S'\x00\x00\x00"z\x14\x1dB'
p747
tp748
Rp749
ag1
(g22
S'\x00\x00@\xe1\xd6\xe1!B'
p750
tp751
Rp752
ag1
(g22
S"\x00\x00\x00\xcf\x192'B"
p753
tp754
Rp755
ag1
(g22
S"\x00\x00\xc03Z\xf4'B"
p756
tp757
Rp758
ag1
(g22
S"\x00\x00\x00\xe2*@'B"
p759
tp760
Rp761
a(lp762
I2008
aI2009
aI2010
aI2011
aI2012
aI2013
aI2014
aI2015
aI2016
atp763
a(g1
(g2
(S'S7'
p764
I0
I1
tp765
Rp766
(I3
S'|'
p767
NNNI7
I1
I0
tp768
bS'Belgium'
p769
tp770
Rp771
g1
(g2
(S'S60'
p772
I0
I1
tp773
Rp774
(I3
S'|'
p775
NNNI60
I1
I0
tp776
bS'Improved sanitation facilities (% of population with access)'
p777
tp778
Rp779
(lp780
g1
(g22
S'\xe9^\x9fx\x809SB'
p781
tp782
Rp783
ag1
(g22
S'hIzn\xc9eUB'
p784
tp785
Rp786
ag1
(g22
S'\x08\\~\x1e\x8b\x1aZB'
p787
tp788
Rp789
ag1
(g22
S'1\xb0\xe4$#\xf0]B'
p790
tp791
Rp792
ag1
(g22
S'\x10\xf0b\xd3\x86eWB'
p793
tp794
Rp795
ag1
(g22
S'\xbe/\xe8\x91l:XB'
p796
tp797
Rp798
ag1
(g22
S'J\xacT\xa9\rV\\B'
p799
tp800
Rp801
ag1
(g22
S'\x83`\xb9\xc3\xe7\xf9ZB'
p802
tp803
Rp804
ag1
(g22
S'\xa0\x8a\x94\xec\xe8Y\\B'
p805
tp806
Rp807
a(lp808
I2008
aI2009
aI2010
aI2011
aI2012
aI2013
aI2014
aI2015
aI2016
atp809
a(g1
(g2
(S'S6'
p810
I0
I1
tp811
Rp812
(I3
S'|'
p813
NNNI6
I1
I0
tp814
bS'Belize'
p815
tp816
Rp817
g1
(g2
(S'S60'
p818
I0
I1
tp819
Rp820
(I3
S'|'
p821
NNNI60
I1
I0
tp822
bS'Improved sanitation facilities (% of population with access)'
p823
tp824
Rp825
(lp826
g1
(g22
S'\xb6\x80\x0c\xa0?\x90\xc8A'
p827
tp828
Rp829
ag1
(g22
S'\xa8\xc5\xc4q.c\xcaA'
p830
tp831
Rp832
ag1
(g22
S'A\x82N\xa9N\xdf\xccA'
p833
tp834
Rp835
ag1
(g22
S'\x82\x8bg\x07|\xd2\xd0A'
p836
tp837
Rp838
ag1
(g22
S'P\xe4\xa1YD\xac\xcaA'
p839
tp840
Rp841
ag1
(g22
S'\xce\xa9@\xc5\xb6\xf5\xccA'
p842
tp843
Rp844
ag1
(g22
S'\xf9N$\xfb\xb9[\xcfA'
p845
tp846
Rp847
ag1
(g22
S'VH\xe9\xba\xda\x1c\xd1A'
p848
tp849
Rp850
ag1
(g22
S'\xa1\xf8\xf5K(\xff\xd1A'
p851
tp852
Rp853
a(lp854
I2008
aI2009
aI2010
aI2011
aI2012
aI2013
aI2014
aI2015
aI2016
atp855
a(g1
(g2
(S'S5'
p856
I0
I1
tp857
Rp858
(I3
S'|'
p859
NNNI5
I1
I0
tp860
bS'Benin'
p861
tp862
Rp863
g1
(g2
(S'S60'
p864
I0
I1
tp865
Rp866
(I3
S'|'
p867
NNNI60
I1
I0
tp868
bS'Improved sanitation facilities (% of population with access)'
p869
tp870
Rp871
(lp872
g1
(g22
S'\x81C\xb8!\xf2\xb2\xd1A'
p873
tp874
Rp875
ag1
(g22
S'G\x8f%\xcc\xf1\xa2\xd5A'
p876
tp877
Rp878
ag1
(g22
S'\xca\xc3\x84]\x10N\xe0A'
p879
tp880
Rp881
ag1
(g22
S'9\xd6\x1f\xcfWL\xe2A'
p882
tp883
Rp884
ag1
(g22
S'\xf0\xc4\x88R\x7f5\xe1A'
p885
tp886
Rp887
ag1
(g22
S')\xd0\xd1\xda\xcf\xd3\xe1A'
p888
tp889
Rp890
ag1
(g22
S'\xde\xab9N\x02\x0e\xe2A'
p891
tp892
Rp893
ag1
(g22
S'N\xb9\x8aP\xf2u\xe4A'
p894
tp895
Rp896
a(lp897
I2008
aI2009
aI2010
aI2011
aI2012
aI2013
aI2014
aI2015
atp898
a(g1
(g2
(S'S7'
p899
I0
I1
tp900
Rp901
(I3
S'|'
p902
NNNI7
I1
I0
tp903
bS'Bermuda'
p904
tp905
Rp906
g1
(g2
(S'S60'
p907
I0
I1
tp908
Rp909
(I3
S'|'
p910
NNNI60
I1
I0
tp911
bS'Improved sanitation facilities (% of population with access)'
p912
tp913
Rp914
(lp915
g1
(g22
S'\x00\x00\x00\xda\xdd\xfa\xe0A'
p916
tp917
Rp918
ag1
(g22
S'\xccb\xdd\x16\xab\xcd\xe4A'
p919
tp920
Rp921
ag1
(g22
S'\x96[\x17\x18\x13\xab\xe4A'
p922
tp923
Rp924
ag1
(g22
S')?]^)\x07\xe2A'
p925
tp926
Rp927
ag1
(g22
S'\t\xe1\x02\xfa\x02C\xe1A'
p928
tp929
Rp930
ag1
(g22
S'\xeb\xe2\xb3\x12\xfe\x06\xe0A'
p931
tp932
Rp933
ag1
(g22
S'\x80+\x83\xac\xb8\xa0\xdeA'
p934
tp935
Rp936
ag1
(g22
S'f\xf7\xe0\xbc\xf4Y\xe4A'
p937
tp938
Rp939
a(lp940
I2009
aI2010
aI2011
aI2012
aI2013
aI2014
aI2015
aI2016
atp941
a(g1
(g2
(S'S6'
p942
I0
I1
tp943
Rp944
(I3
S'|'
p945
NNNI6
I1
I0
tp946
bS'Bhutan'
p947
tp948
Rp949
g1
(g2
(S'S60'
p950
I0
I1
tp951
Rp952
(I3
S'|'
p953
NNNI60
I1
I0
tp954
bS'Improved sanitation facilities (% of population with access)'
p955
tp956
Rp957
(lp958
g1
(g22
S'\xfb#\xa0\xf0BD\xbfA'
p959
tp960
Rp961
ag1
(g22
S'\xa3v\xa9]\xdeD\xc2A'
p962
tp963
Rp964
ag1
(g22
S'\xe8\xf8^M\xcc\xe4\xc8A'
p965
tp966
Rp967
ag1
(g22
S'\x03\xea?~\xe6\xe6\xc5A'
p968
tp969
Rp970
ag1
(g22
S'X\xe2\x9d\xddf\x82\xceA'
p971
tp972
Rp973
ag1
(g22
S'\x92y.\xf4q=\xd5A'
p974
tp975
Rp976
ag1
(g22
S'h"^R\x9b\x04\xd4A'
p977
tp978
Rp979
ag1
(g22
S'\xf1F\x9c&}\x9b\xd3A'
p980
tp981
Rp982
a(lp983
I2009
aI2010
aI2011
aI2012
aI2013
aI2014
aI2015
aI2016
atp984
a(g1
(g2
(S'S7'
p985
I0
I1
tp986
Rp987
(I3
S'|'
p988
NNNI7
I1
I0
tp989
bS'Bolivia'
p990
tp991
Rp992
g1
(g2
(S'S60'
p993
I0
I1
tp994
Rp995
(I3
S'|'
p996
NNNI60
I1
I0
tp997
bS'Improved sanitation facilities (% of population with access)'
p998
tp999
Rp1000
(lp1001
g1
(g22
S'tFM\xb2\xda\x0c\xe9A'
p1002
tp1003
Rp1004
ag1
(g22
S'\x11p1\xfaCx\xeeA'
p1005
tp1006
Rp1007
ag1
(g22
S']?\xea\xad\xdf\x9f\xf2A'
p1008
tp1009
Rp1010
ag1
(g22
S'\xe3\xc2\xc9\x01Z\xd0\xf8A'
p1011
tp1012
Rp1013
ag1
(g22
S'\x00\x00\x00\x9fd\x95\xf6A'
p1014
tp1015
Rp1016
ag1
(g22
S'\x14\\\xa6\xd2\x11\x8c\xfaA'
p1017
tp1018
Rp1019
ag1
(g22
S'K\xaa\xbe\xbf\x82p\x02B'
p1020
tp1021
Rp1022
ag1
(g22
S'op\xc4\xf0\n\xc6\x05B'
p1023
tp1024
Rp1025
ag1
(g22
S'\x97\x90\x1a33(\x08B'
p1026
tp1027
Rp1028
a(lp1029
I2008
aI2009
aI2010
aI2011
aI2012
aI2013
aI2014
aI2015
aI2016
atp1030
a(g1
(g2
(S'S22'
p1031
I0
I1
tp1032
Rp1033
(I3
S'|'
p1034
NNNI22
I1
I0
tp1035
bS'Bosnia and Herzegovina'
p1036
tp1037
Rp1038
g1
(g2
(S'S60'
p1039
I0
I1
tp1040
Rp1041
(I3
S'|'
p1042
NNNI60
I1
I0
tp1043
bS'Improved sanitation facilities (% of population with access)'
p1044
tp1045
Rp1046
(lp1047
g1
(g22
S'N\x7f\x8e\xf5=/\xfeA'
p1048
tp1049
Rp1050
ag1
(g22
S'-\x95\xa52 \x9d\xffA'
p1051
tp1052
Rp1053
ag1
(g22
S'\xf8\x08\xafv\xad\xd4\x01B'
p1054
tp1055
Rp1056
ag1
(g22
S'\x14\xbfi\xc9\xc59\x06B'
p1057
tp1058
Rp1059
ag1
(g22
S'\xa5\xab\xa6D\xb7x\x00B'
p1060
tp1061
Rp1062
ag1
(g22
S'G\xc3"\xf4\x8e\xf8\x00B'
p1063
tp1064
Rp1065
ag1
(g22
S'\x07_\xd6\xc2u\\\x04B'
p1066
tp1067
Rp1068
ag1
(g22
S'\nW\x95^h\xaa\x02B'
p1069
tp1070
Rp1071
ag1
(g22
S'\x1c|\x815\xf6\xfe\x02B'
p1072
tp1073
Rp1074
a(lp1075
I2008
aI2009
aI2010
aI2011
aI2012
aI2013
aI2014
aI2015
aI2016
atp1076
a(g1
(g2
(S'S8'
p1077
I0
I1
tp1078
Rp1079
(I3
S'|'
p1080
NNNI8
I1
I0
tp1081
bS'Botswana'
p1082
tp1083
Rp1084
g1
(g2
(S'S60'
p1085
I0
I1
tp1086
Rp1087
(I3
S'|'
p1088
NNNI60
I1
I0
tp1089
bS'Improved sanitation facilities (% of population with access)'
p1090
tp1091
Rp1092
(lp1093
g1
(g22
S't)\x0116\xa5\xf1A'
p1094
tp1095
Rp1096
ag1
(g22
S'\x93\xe3\xb3\xfe\xfeU\xf1A'
p1097
tp1098
Rp1099
ag1
(g22
S'F\x94\xf7\xa9\xdbV\xf6A'
p1100
tp1101
Rp1102
ag1
(g22
S'\xa02\x08\xbe\xde^\xf9A'
p1103
tp1104
Rp1105
ag1
(g22
S'\xbe$\xbf\xe6@\xd6\xf5A'
p1106
tp1107
Rp1108
ag1
(g22
S'\xabO\x82\xe6\x8b\xae\xfaA'
p1109
tp1110
Rp1111
ag1
(g22
S'UY\xb3\x8c\xe2D\xffA'
p1112
tp1113
Rp1114
ag1
(g22
S'\x83\x06\x81\xb8(P\x00B'
p1115
tp1116
Rp1117
ag1
(g22
S'\x11\xc7\t\xcf\xbf\xa3\xfeA'
p1118
tp1119
Rp1120
a(lp1121
I2008
aI2009
aI2010
aI2011
aI2012
aI2013
aI2014
aI2015
aI2016
atp1122
a(g1
(g2
(S'S6'
p1123
I0
I1
tp1124
Rp1125
(I3
S'|'
p1126
NNNI6
I1
I0
tp1127
bS'Brazil'
p1128
tp1129
Rp1130
g1
(g2
(S'S60'
p1131
I0
I1
tp1132
Rp1133
(I3
S'|'
p1134
NNNI60
I1
I0
tp1135
bS'Improved sanitation facilities (% of population with access)'
p1136
tp1137
Rp1138
(lp1139
g1
(g22
S'\x98\x0e8\xf9\xa1H=B'
p1140
tp1141
Rp1142
ag1
(g22
S'\x9c\xe4\x15\xe1s\xdcAB'
p1143
tp1144
Rp1145
ag1
(g22
S'\xc5\x000&\xf9\x1dGB'
p1146
tp1147
Rp1148
ag1
(g22
S'\x89\xa1\x04\xa8\x8f\xd1OB'
p1149
tp1150
Rp1151
ag1
(g22
S'\x00\x00,\xa0IIIB'
p1152
tp1153
Rp1154
ag1
(g22
S'\x93\x80f\xa2\xa4\xf1PB'
p1155
tp1156
Rp1157
ag1
(g22
S'=\n\x8fa\\\xfbTB'
p1158
tp1159
Rp1160
ag1
(g22
S'H\xc1g\xae\xb7eTB'
p1161
tp1162
Rp1163
ag1
(g22
S'\xf0\xef\x91tu\xdeUB'
p1164
tp1165
Rp1166
a(lp1167
I2008
aI2009
aI2010
aI2011
aI2012
aI2013
aI2014
aI2015
aI2016
atp1168
a(g1
(g2
(S'S17'
p1169
I0
I1
tp1170
Rp1171
(I3
S'|'
p1172
NNNI17
I1
I0
tp1173
bS'Brunei Darussalam'
p1174
tp1175
Rp1176
g1
(g2
(S'S60'
p1177
I0
I1
tp1178
Rp1179
(I3
S'|'
p1180
NNNI60
I1
I0
tp1181
bS'Improved sanitation facilities (% of population with access)'
p1182
tp1183
Rp1184
(lp1185
g1
(g22
S'\xb1\xbf"\xca\xd64\xe4A'
p1186
tp1187
Rp1188
ag1
(g22
S'\xdcK\x01\x1b\x91<\xe6A'
p1189
tp1190
Rp1191
ag1
(g22
S'\xb5Ov\x0c\x83/\xeaA'
p1192
tp1193
Rp1194
ag1
(g22
S'\x0c\x9f\x02]c\xcc\xf0A'
p1195
tp1196
Rp1197
ag1
(g22
S'\xaf\x08I1\xe6\xa8\xedA'
p1198
tp1199
Rp1200
ag1
(g22
S'\x1e\xe1\x15m\xa8x\xfeA'
p1201
tp1202
Rp1203
a(lp1204
I2008
aI2009
aI2010
aI2011
aI2012
aI2015
atp1205
a(g1
(g2
(S'S8'
p1206
I0
I1
tp1207
Rp1208
(I3
S'|'
p1209
NNNI8
I1
I0
tp1210
bS'Bulgaria'
p1211
tp1212
Rp1213
g1
(g2
(S'S60'
p1214
I0
I1
tp1215
Rp1216
(I3
S'|'
p1217
NNNI60
I1
I0
tp1218
bS'Improved sanitation facilities (% of population with access)'
p1219
tp1220
Rp1221
(lp1222
g1
(g22
S'\xf7\xe4\xe4~^\x85\x14B'
p1223
tp1224
Rp1225
ag1
(g22
S'\xea\x15_U\xd0\xb5\x1aB'
p1226
tp1227
Rp1228
ag1
(g22
S'\x90\xe0r\xc0z\x95"B'
p1229
tp1230
Rp1231
ag1
(g22
S'\xead\xd0\x12\xd7\xff$B'
p1232
tp1233
Rp1234
ag1
(g22
S';\x01.Xd\xe8\x1bB'
p1235
tp1236
Rp1237
ag1
(g22
S'I\x1d~\xc8\xf7\x99\x1cB'
p1238
tp1239
Rp1240
ag1
(g22
S'J\x8cN\x16\xa1\x15"B'
p1241
tp1242
Rp1243
ag1
(g22
S'%\x86eCM\xc2!B'
p1244
tp1245
Rp1246
ag1
(g22
S'\xc1\xd9Q\x8d\xdd\xd9"B'
p1247
tp1248
Rp1249
a(lp1250
I2008
aI2009
aI2010
aI2011
aI2012
aI2013
aI2014
aI2015
aI2016
atp1251
a(g1
(g2
(S'S12'
p1252
I0
I1
tp1253
Rp1254
(I3
S'|'
p1255
NNNI12
I1
I0
tp1256
bS'Burkina Faso'
p1257
tp1258
Rp1259
g1
(g2
(S'S60'
p1260
I0
I1
tp1261
Rp1262
(I3
S'|'
p1263
NNNI60
I1
I0
tp1264
bS'Improved sanitation facilities (% of population with access)'
p1265
tp1266
Rp1267
(lp1268
g1
(g22
S'\x95e\xb6\xe8\xe1\xa3\xd5A'
p1269
tp1270
Rp1271
ag1
(g22
S'U\x18\x0f\xd3\x8f\x85\xd6A'
p1272
tp1273
Rp1274
ag1
(g22
S'\xf7;n\x9cNU\xdaA'
p1275
tp1276
Rp1277
ag1
(g22
S'mV\xf7\xe4\xeb0\xe2A'
p1278
tp1279
Rp1280
ag1
(g22
S'7T\x96W\xd3Q\xdeA'
p1281
tp1282
Rp1283
ag1
(g22
S'<\x14\xcc&\xc2\xc7\xe3A'
p1284
tp1285
Rp1286
a(lp1287
I2008
aI2009
aI2010
aI2011
aI2012
aI2013
atp1288
a(g1
(g2
(S'S7'
p1289
I0
I1
tp1290
Rp1291
(I3
S'|'
p1292
NNNI7
I1
I0
tp1293
bS'Burundi'
p1294
tp1295
Rp1296
g1
(g2
(S'S60'
p1297
I0
I1
tp1298
Rp1299
(I3
S'|'
p1300
NNNI60
I1
I0
tp1301
bS'Improved sanitation facilities (% of population with access)'
p1302
tp1303
Rp1304
(lp1305
g1
(g22
S'6\x1d)\xcc\xf4\x7f\xb4A'
p1306
tp1307
Rp1308
ag1
(g22
S'\x0f\xb7\x0f\xd1\xaap\xbbA'
p1309
tp1310
Rp1311
ag1
(g22
S'b\xf6\x16U\xcc\xde\xbaA'
p1312
tp1313
Rp1314
ag1
(g22
S'\xb8s\x85\xc1\x8f)\xc2A'
p1315
tp1316
Rp1317
ag1
(g22
S'\\\xe51E\xbb\x08\xc0A'
p1318
tp1319
Rp1320
ag1
(g22
S'\x81\x93\xf5$\x9ap\xc2A'
p1321
tp1322
Rp1323
ag1
(g22
S'+K\xfedL\x8d\xc7A'
p1324
tp1325
Rp1326
ag1
(g22
S"'M\x0f\xee\xe2\x07\xccA"
p1327
tp1328
Rp1329
ag1
(g22
S'\xb4\xca\xc24\x98y\xcbA'
p1330
tp1331
Rp1332
a(lp1333
I2008
aI2009
aI2010
aI2011
aI2012
aI2013
aI2014
aI2015
aI2016
atp1334
a(g1
(g2
(S'S10'
p1335
I0
I1
tp1336
Rp1337
(I3
S'|'
p1338
NNNI10
I1
I0
tp1339
bS'Cabo Verde'
p1340
tp1341
Rp1342
g1
(g2
(S'S60'
p1343
I0
I1
tp1344
Rp1345
(I3
S'|'
p1346
NNNI60
I1
I0
tp1347
bS'Improved sanitation facilities (% of population with access)'
p1348
tp1349
Rp1350
(lp1351
g1
(g22
S'0\xd4\xb3&\x9e\xb2\xc4A'
p1352
tp1353
Rp1354
ag1
(g22
S'\xe3\xfe[\xa3\x8f\xb9\xc9A'
p1355
tp1356
Rp1357
ag1
(g22
S'u\x02V\xea\xf3F\xd0A'
p1358
tp1359
Rp1360
ag1
(g22
S'\x18`-\xca\xe5\xc1\xd2A'
p1361
tp1362
Rp1363
ag1
(g22
S'\xae*\x01\xca\x01\x1f\xd1A'
p1364
tp1365
Rp1366
ag1
(g22
S'}"o\x8b\x9e\xfb\xd1A'
p1367
tp1368
Rp1369
ag1
(g22
S'\xe0-\xa2\x86\x1f\xbf\xd5A'
p1370
tp1371
Rp1372
ag1
(g22
S'\rq\xfc\xff<\x00\xd3A'
p1373
tp1374
Rp1375
ag1
(g22
S'\xa5k\xf4\xf5\x92i\xd2A'
p1376
tp1377
Rp1378
a(lp1379
I2008
aI2009
aI2010
aI2011
aI2012
aI2013
aI2014
aI2015
aI2016
atp1380
a(g1
(g2
(S'S8'
p1381
I0
I1
tp1382
Rp1383
(I3
S'|'
p1384
NNNI8
I1
I0
tp1385
bS'Cambodia'
p1386
tp1387
Rp1388
g1
(g2
(S'S60'
p1389
I0
I1
tp1390
Rp1391
(I3
S'|'
p1392
NNNI60
I1
I0
tp1393
bS'Improved sanitation facilities (% of population with access)'
p1394
tp1395
Rp1396
(lp1397
g1
(g22
S'\xc8j\xf1U\xa8b\xf2A'
p1398
tp1399
Rp1400
ag1
(g22
S'O\xc0\x06NxD\xf6A'
p1401
tp1402
Rp1403
ag1
(g22
S'Y\x97$\x18\x1a\xa6\xf5A'
p1404
tp1405
Rp1406
ag1
(g22
S'\xb1?\xb0\xf0\xebo\xf8A'
p1407
tp1408
Rp1409
ag1
(g22
S'\xe6.C\xb2\nH\xf6A'
p1410
tp1411
Rp1412
ag1
(g22
S'\x80\x8e\x86\xe68[\xfaA'
p1413
tp1414
Rp1415
ag1
(g22
S'\x9e\x12z\x8d\x0c\x8b\x00B'
p1416
tp1417
Rp1418
ag1
(g22
S'\xcf\xe6\xc1\xbc\xd7C\x03B'
p1419
tp1420
Rp1421
ag1
(g22
S'%u\xfc\x87\xbe}\x06B'
p1422
tp1423
Rp1424
a(lp1425
I2008
aI2009
aI2010
aI2011
aI2012
aI2013
aI2014
aI2015
aI2016
atp1426
a(g1
(g2
(S'S8'
p1427
I0
I1
tp1428
Rp1429
(I3
S'|'
p1430
NNNI8
I1
I0
tp1431
bS'Cameroon'
p1432
tp1433
Rp1434
g1
(g2
(S'S60'
p1435
I0
I1
tp1436
Rp1437
(I3
S'|'
p1438
NNNI60
I1
I0
tp1439
bS'Improved sanitation facilities (% of population with access)'
p1440
tp1441
Rp1442
(lp1443
g1
(g22
S'\xf5[c{\xad\xab\xf2A'
p1444
tp1445
Rp1446
ag1
(g22
S'\xcfw\x07\xad\xdd\xbd\xf2A'
p1447
tp1448
Rp1449
ag1
(g22
S"\x8a\xbc\xe2'\x1bh\xf8A"
p1450
tp1451
Rp1452
ag1
(g22
S'\xf0m\xeb\xdd|o\xffA'
p1453
tp1454
Rp1455
ag1
(g22
S'|\xfejF\xe0|\xf9A'
p1456
tp1457
Rp1458
ag1
(g22
S'\xb1\xe1\xdf\xcb\x94\xf8\xf8A'
p1459
tp1460
Rp1461
ag1
(g22
S')P\xa0\xac\xf4*\x00B'
p1462
tp1463
Rp1464
ag1
(g22
S'\xd5\x04\xa3\n\x19i\x00B'
p1465
tp1466
Rp1467
ag1
(g22
S'\xa6J\xfa\xe5\xd1\xed\x01B'
p1468
tp1469
Rp1470
a(lp1471
I2008
aI2009
aI2010
aI2011
aI2012
aI2013
aI2014
aI2015
aI2016
atp1472
a(g1
(g2
(S'S6'
p1473
I0
I1
tp1474
Rp1475
(I3
S'|'
p1476
NNNI6
I1
I0
tp1477
bS'Canada'
p1478
tp1479
Rp1480
g1
(g2
(S'S60'
p1481
I0
I1
tp1482
Rp1483
(I3
S'|'
p1484
NNNI60
I1
I0
tp1485
bS'Improved sanitation facilities (% of population with access)'
p1486
tp1487
Rp1488
(lp1489
g1
(g22
S'\xc1\xb2\xe3\x9b\xfb\x15ZB'
p1490
tp1491
Rp1492
ag1
(g22
S'\x81\x9d^!vW]B'
p1493
tp1494
Rp1495
ag1
(g22
S'\x02_\x0e~\xe2R`B'
p1496
tp1497
Rp1498
ag1
(g22
S'\xcf\xdbf\x8f\xb1eaB'
p1499
tp1500
Rp1501
ag1
(g22
S'\xd9\xc6\x1b8\xa0\xe3[B'
p1502
tp1503
Rp1504
ag1
(g22
S'^\xc2\x0b\x01\x96\xfd`B'
p1505
tp1506
Rp1507
ag1
(g22
S'\xb0\x9e\x1e\x82SAcB'
p1508
tp1509
Rp1510
ag1
(g22
S'\x0cfeA\xb8\xe7cB'
p1511
tp1512
Rp1513
ag1
(g22
S'J\xecr\x0e\xab\xd2cB'
p1514
tp1515
Rp1516
a(lp1517
I2008
aI2009
aI2010
aI2011
aI2012
aI2013
aI2014
aI2015
aI2016
atp1518
a(g1
(g2
(S'S22'
p1519
I0
I1
tp1520
Rp1521
(I3
S'|'
p1522
NNNI22
I1
I0
tp1523
bS'Caribbean small states'
p1524
tp1525
Rp1526
g1
(g2
(S'S60'
p1527
I0
I1
tp1528
Rp1529
(I3
S'|'
p1530
NNNI60
I1
I0
tp1531
bS'Improved sanitation facilities (% of population with access)'
p1532
tp1533
Rp1534
(lp1535
g1
(g22
S'\x86\x9a\xee&\xf3\xcf\x18B'
p1536
tp1537
Rp1538
ag1
(g22
S'27S[Y\xd0\x1bB'
p1539
tp1540
Rp1541
ag1
(g22
S'\x89\x12\xd3\x10\xceb\x1fB'
p1542
tp1543
Rp1544
ag1
(g22
S'6\xab\xd9\xc6E\xf2!B'
p1545
tp1546
Rp1547
ag1
(g22
S'\x9c3\x92\x02,\x80\x1bB'
p1548
tp1549
Rp1550
ag1
(g22
S'\xaevB\x94\xc7\x98\x1bB'
p1551
tp1552
Rp1553
ag1
(g22
S'W\xec \xc7\x87\x90$B'
p1554
tp1555
Rp1556
a(lp1557
I2008
aI2009
aI2010
aI2011
aI2012
aI2013
aI2014
atp1558
a(g1
(g2
(S'S14'
p1559
I0
I1
tp1560
Rp1561
(I3
S'|'
p1562
NNNI14
I1
I0
tp1563
bS'Cayman Islands'
p1564
tp1565
Rp1566
g1
(g2
(S'S60'
p1567
I0
I1
tp1568
Rp1569
(I3
S'|'
p1570
NNNI60
I1
I0
tp1571
bS'Improved sanitation facilities (% of population with access)'
p1572
tp1573
Rp1574
(lp1575
(lp1576
tp1577
a(g1
(g2
(S'S24'
p1578
I0
I1
tp1579
Rp1580
(I3
S'|'
p1581
NNNI24
I1
I0
tp1582
bS'Central African Republic'
p1583
tp1584
Rp1585
g1
(g2
(S'S60'
p1586
I0
I1
tp1587
Rp1588
(I3
S'|'
p1589
NNNI60
I1
I0
tp1590
bS'Improved sanitation facilities (% of population with access)'
p1591
tp1592
Rp1593
(lp1594
(lp1595
tp1596
a(g1
(g2
(S'S30'
p1597
I0
I1
tp1598
Rp1599
(I3
S'|'
p1600
NNNI30
I1
I0
tp1601
bS'Central Europe and the Baltics'
p1602
tp1603
Rp1604
g1
(g2
(S'S60'
p1605
I0
I1
tp1606
Rp1607
(I3
S'|'
p1608
NNNI60
I1
I0
tp1609
bS'Improved sanitation facilities (% of population with access)'
p1610
tp1611
Rp1612
(lp1613
g1
(g22
S'm\xb7\x96\xe2\xb77\\B'
p1614
tp1615
Rp1616
ag1
(g22
S'\xf2\xae\xe8\xc4,\x9baB'
p1617
tp1618
Rp1619
ag1
(g22
S'\x1fmgWxKgB'
p1620
tp1621
Rp1622
ag1
(g22
S'\x87\xd6lO9\x1blB'
p1623
tp1624
Rp1625
ag1
(g22
S';\xbf\x16\x8e)\x8adB'
p1626
tp1627
Rp1628
ag1
(g22
S'\xc3\x91\xf7:4&gB'
p1629
tp1630
Rp1631
ag1
(g22
S'\x8b\xa0\xd0\x0f\xf8)kB'
p1632
tp1633
Rp1634
ag1
(g22
S'\xa0\x069|\xc8\xeeiB'
p1635
tp1636
Rp1637
ag1
(g22
S'\xb2\x81\x8c\x9b>\xefjB'
p1638
tp1639
Rp1640
a(lp1641
I2008
aI2009
aI2010
aI2011
aI2012
aI2013
aI2014
aI2015
aI2016
atp1642
a(g1
(g2
(S'S4'
p1643
I0
I1
tp1644
Rp1645
(I3
S'|'
p1646
NNNI4
I1
I0
tp1647
bS'Chad'
p1648
tp1649
Rp1650
g1
(g2
(S'S60'
p1651
I0
I1
tp1652
Rp1653
(I3
S'|'
p1654
NNNI60
I1
I0
tp1655
bS'Improved sanitation facilities (% of population with access)'
p1656
tp1657
Rp1658
(lp1659
(lp1660
tp1661
a(g1
(g2
(S'S15'
p1662
I0
I1
tp1663
Rp1664
(I3
S'|'
p1665
NNNI15
I1
I0
tp1666
bS'Channel Islands'
p1667
tp1668
Rp1669
g1
(g2
(S'S60'
p1670
I0
I1
tp1671
Rp1672
(I3
S'|'
p1673
NNNI60
I1
I0
tp1674
bS'Improved sanitation facilities (% of population with access)'
p1675
tp1676
Rp1677
(lp1678
(lp1679
tp1680
a(g1
(g2
(S'S5'
p1681
I0
I1
tp1682
Rp1683
(I3
S'|'
p1684
NNNI5
I1
I0
tp1685
bS'Chile'
p1686
tp1687
Rp1688
g1
(g2
(S'S60'
p1689
I0
I1
tp1690
Rp1691
(I3
S'|'
p1692
NNNI60
I1
I0
tp1693
bS'Improved sanitation facilities (% of population with access)'
p1694
tp1695
Rp1696
(lp1697
g1
(g22
S"\x07p\xb9\xd2\xfc\xd5'B"
p1698
tp1699
Rp1700
ag1
(g22
S'\x04\x96\x975%\xcc.B'
p1701
tp1702
Rp1703
ag1
(g22
S'\xac\xfbS\xa3\x98`2B'
p1704
tp1705
Rp1706
ag1
(g22
S'z\xb6>-\x8e\xc74B'
p1707
tp1708
Rp1709
ag1
(g22
S'\x90`$\xbda\xee/B'
p1710
tp1711
Rp1712
ag1
(g22
S'\xc3\xb5pMy\xed4B'
p1713
tp1714
Rp1715
ag1
(g22
S'J\x8c\xb2\x81\x9a\x069B'
p1716
tp1717
Rp1718
ag1
(g22
S'\xe1\x9a\x8e\xcd\xff\x9e9B'
p1719
tp1720
Rp1721
ag1
(g22
S'5\xbe\x8f\x81\xe2\x809B'
p1722
tp1723
Rp1724
a(lp1725
I2008
aI2009
aI2010
aI2011
aI2012
aI2013
aI2014
aI2015
aI2016
atp1726
a(g1
(g2
(S'S5'
p1727
I0
I1
tp1728
Rp1729
(I3
S'|'
p1730
NNNI5
I1
I0
tp1731
bS'China'
p1732
tp1733
Rp1734
g1
(g2
(S'S60'
p1735
I0
I1
tp1736
Rp1737
(I3
S'|'
p1738
NNNI60
I1
I0
tp1739
bS'Improved sanitation facilities (% of population with access)'
p1740
tp1741
Rp1742
(lp1743
g1
(g22
S')\x10U\xa6{hdB'
p1744
tp1745
Rp1746
ag1
(g22
S'\xcf\x1b\x11\x97\x1c\xfdgB'
p1747
tp1748
Rp1749
ag1
(g22
S'\xec)\xa2\xe1\x18\xc4mB'
p1750
tp1751
Rp1752
ag1
(g22
S'\xe1J\xc2\xb2o\xdeqB'
p1753
tp1754
Rp1755
ag1
(g22
S'{\xc8\x0e\xe9\x1a\xd6pB'
p1756
tp1757
Rp1758
ag1
(g22
S'\xb8JI\xdfq.wB'
p1759
tp1760
Rp1761
ag1
(g22
S'\xf6 \xc4\xac\x8bq}B'
p1762
tp1763
Rp1764
ag1
(g22
S'\xf6\xcc*\x8b\x9b0\x7fB'
p1765
tp1766
Rp1767
ag1
(g22
S'\x85\xd9\x84\x91\x82%\x81B'
p1768
tp1769
Rp1770
a(lp1771
I2008
aI2009
aI2010
aI2011
aI2012
aI2013
aI2014
aI2015
aI2016
atp1772
a(g1
(g2
(S'S8'
p1773
I0
I1
tp1774
Rp1775
(I3
S'|'
p1776
NNNI8
I1
I0
tp1777
bS'Colombia'
p1778
tp1779
Rp1780
g1
(g2
(S'S60'
p1781
I0
I1
tp1782
Rp1783
(I3
S'|'
p1784
NNNI60
I1
I0
tp1785
bS'Improved sanitation facilities (% of population with access)'
p1786
tp1787
Rp1788
(lp1789
g1
(g22
S'\nW\xad\xba\x84\x94\x1dB'
p1790
tp1791
Rp1792
ag1
(g22
S'\xabo\xe5w\xed\xbf!B'
p1793
tp1794
Rp1795
ag1
(g22
S'\xd8\xa1\xf2\xb3M-&B'
p1796
tp1797
Rp1798
ag1
(g22
S'\xc7\xfa\xf9\x85\xf1\x81*B'
p1799
tp1800
Rp1801
ag1
(g22
S'\xc1\xa8\x93-\x1f\xfa&B'
p1802
tp1803
Rp1804
ag1
(g22
S'\x94\xa7\x00\xacK>,B'
p1805
tp1806
Rp1807
ag1
(g22
S'\xc6\xfc](]\xe82B'
p1808
tp1809
Rp1810
ag1
(g22
S'\x10\tSY\xdcn4B'
p1811
tp1812
Rp1813
ag1
(g22
S'\xe4\xe4\x98\x89\xf7i4B'
p1814
tp1815
Rp1816
a(lp1817
I2008
aI2009
aI2010
aI2011
aI2012
aI2013
aI2014
aI2015
aI2016
atp1818
a(g1
(g2
(S'S7'
p1819
I0
I1
tp1820
Rp1821
(I3
S'|'
p1822
NNNI7
I1
I0
tp1823
bS'Comoros'
p1824
tp1825
Rp1826
g1
(g2
(S'S60'
p1827
I0
I1
tp1828
Rp1829
(I3
S'|'
p1830
NNNI60
I1
I0
tp1831
bS'Improved sanitation facilities (% of population with access)'
p1832
tp1833
Rp1834
(lp1835
g1
(g22
S'\x95\xd8ut\x0c3\xa1A'
p1836
tp1837
Rp1838
ag1
(g22
S'\xaa,\xca\xa6\x03)\xa3A'
p1839
tp1840
Rp1841
ag1
(g22
S'3\x1a\x89\xe3\x82B\xa7A'
p1842
tp1843
Rp1844
ag1
(g22
S'\x83\xc0\xe2\r\x88O\xafA'
p1845
tp1846
Rp1847
ag1
(g22
S'\xf9M\xd9\xf5$\xc2\xaeA'
p1848
tp1849
Rp1850
ag1
(g22
S'\xf3\x1d\xacugj\xb0A'
p1851
tp1852
Rp1853
ag1
(g22
S'/\x8a\xca-\xf5\x91\xb2A'
p1854
tp1855
Rp1856
ag1
(g22
S'\xf8OS*O\x7f\xb3A'
p1857
tp1858
Rp1859
a(lp1860
I2008
aI2009
aI2010
aI2011
aI2012
aI2013
aI2014
aI2015
atp1861
a(g1
(g2
(S'S10'
p1862
I0
I1
tp1863
Rp1864
(I3
S'|'
p1865
NNNI10
I1
I0
tp1866
bS'Costa Rica'
p1867
tp1868
Rp1869
g1
(g2
(S'S60'
p1870
I0
I1
tp1871
Rp1872
(I3
S'|'
p1873
NNNI60
I1
I0
tp1874
bS'Improved sanitation facilities (% of population with access)'
p1875
tp1876
Rp1877
(lp1878
g1
(g22
S'\x0b\xa9 \x1b\xd1]\x00B'
p1879
tp1880
Rp1881
ag1
(g22
S'\x84\xf0\xd9C.\x95\x02B'
p1882
tp1883
Rp1884
ag1
(g22
S'\xbf\x0e\xb6\xea&\xe9\x06B'
p1885
tp1886
Rp1887
ag1
(g22
S'\xf3\x1f\xb9\x16\xb4?\nB'
p1888
tp1889
Rp1890
ag1
(g22
S'\x9f<?\xe3\xd6)\x04B'
p1891
tp1892
Rp1893
ag1
(g22
S'\xe0\xbe|D\x1c.\x07B'
p1894
tp1895
Rp1896
ag1
(g22
S'*\xa9\xee\x9b\xb0\xd2\nB'
p1897
tp1898
Rp1899
ag1
(g22
S'\xb0\xf2\x08W\x0eO\rB'
p1900
tp1901
Rp1902
ag1
(g22
S'XJ\xc8v\xaay\x0eB'
p1903
tp1904
Rp1905
a(lp1906
I2008
aI2009
aI2010
aI2011
aI2012
aI2013
aI2014
aI2015
aI2016
atp1907
a(g1
(g2
(S'S13'
p1908
I0
I1
tp1909
Rp1910
(I3
S'|'
p1911
NNNI13
I1
I0
tp1912
bS"Cote d'Ivoire"
p1913
tp1914
Rp1915
g1
(g2
(S'S60'
p1916
I0
I1
tp1917
Rp1918
(I3
S'|'
p1919
NNNI60
I1
I0
tp1920
bS'Improved sanitation facilities (% of population with access)'
p1921
tp1922
Rp1923
(lp1924
g1
(g22
S'\xf4\x89P\x17\xb6\x9a\xfeA'
p1925
tp1926
Rp1927
ag1
(g22
S')K)\xf8o\xab\xffA'
p1928
tp1929
Rp1930
ag1
(g22
S'N?\x16\xc7\x98\xe5\x01B'
p1931
tp1932
Rp1933
ag1
(g22
S'\xd6\xc5>7\x13:\x04B'
p1934
tp1935
Rp1936
ag1
(g22
S'\xe5PG\xd1s3\x04B'
p1937
tp1938
Rp1939
ag1
(g22
S'\x81\xa6\xdb\xa1\x8e-\x06B'
p1940
tp1941
Rp1942
a(lp1943
I2008
aI2009
aI2010
aI2011
aI2012
aI2013
atp1944
a(g1
(g2
(S'S7'
p1945
I0
I1
tp1946
Rp1947
(I3
S'|'
p1948
NNNI7
I1
I0
tp1949
bS'Croatia'
p1950
tp1951
Rp1952
g1
(g2
(S'S60'
p1953
I0
I1
tp1954
Rp1955
(I3
S'|'
p1956
NNNI60
I1
I0
tp1957
bS'Improved sanitation facilities (% of population with access)'
p1958
tp1959
Rp1960
(lp1961
g1
(g22
S' \x92hPt\x17\x16B'
p1962
tp1963
Rp1964
ag1
(g22
S'?\xd7\xaa\xc8cO\x19B'
p1965
tp1966
Rp1967
ag1
(g22
S'TR\xb0I\x08g\x1eB'
p1968
tp1969
Rp1970
ag1
(g22
S'\xa2\xa5B\xbcmF"B'
p1971
tp1972
Rp1973
ag1
(g22
S'\xe6\xbf\xaf\xff5v\x1aB'
p1974
tp1975
Rp1976
ag1
(g22
S'\xe6.\xb9\xacU\xe9\x18B'
p1977
tp1978
Rp1979
ag1
(g22
S'V\x0e\x04.\x04\x8a\x1bB'
p1980
tp1981
Rp1982
ag1
(g22
S'\xa5N\xb3n\xf5\x84\x19B'
p1983
tp1984
Rp1985
ag1
(g22
S'\x1323\xdd\x81\xf4\x18B'
p1986
tp1987
Rp1988
a(lp1989
I2008
aI2009
aI2010
aI2011
aI2012
aI2013
aI2014
aI2015
aI2016
atp1990
a(g1
(g2
(S'S4'
p1991
I0
I1
tp1992
Rp1993
(I3
S'|'
p1994
NNNI4
I1
I0
tp1995
bS'Cuba'
p1996
tp1997
Rp1998
g1
(g2
(S'S60'
p1999
I0
I1
tp2000
Rp2001
(I3
S'|'
p2002
NNNI60
I1
I0
tp2003
bS'Improved sanitation facilities (% of population with access)'
p2004
tp2005
Rp2006
(lp2007
(lp2008
tp2009
a(g1
(g2
(S'S7'
p2010
I0
I1
tp2011
Rp2012
(I3
S'|'
p2013
NNNI7
I1
I0
tp2014
bS'Curacao'
p2015
tp2016
Rp2017
g1
(g2
(S'S60'
p2018
I0
I1
tp2019
Rp2020
(I3
S'|'
p2021
NNNI60
I1
I0
tp2022
bS'Improved sanitation facilities (% of population with access)'
p2023
tp2024
Rp2025
(lp2026
(lp2027
tp2028
a(g1
(g2
(S'S6'
p2029
I0
I1
tp2030
Rp2031
(I3
S'|'
p2032
NNNI6
I1
I0
tp2033
bS'Cyprus'
p2034
tp2035
Rp2036
g1
(g2
(S'S60'
p2037
I0
I1
tp2038
Rp2039
(I3
S'|'
p2040
NNNI60
I1
I0
tp2041
bS'Improved sanitation facilities (% of population with access)'
p2042
tp2043
Rp2044
(lp2045
g1
(g22
S'\xa6\x1b+\x07Z\x03\x04B'
p2046
tp2047
Rp2048
ag1
(g22
S'\xa5,)\xe6\x86\xae\x06B'
p2049
tp2050
Rp2051
ag1
(g22
S'\xbb\xa7\xd7\x1f\xb7L\x0eB'
p2052
tp2053
Rp2054
ag1
(g22
S';\xdf\x95#S\xaa\x11B'
p2055
tp2056
Rp2057
ag1
(g22
S'K\xc8\x11\x06\xe6=\rB'
p2058
tp2059
Rp2060
ag1
(g22
S'e\x19\x19\x0e\xbaR\x0bB'
p2061
tp2062
Rp2063
ag1
(g22
S'`e\xa2\xf2!\xb0\x0cB'
p2064
tp2065
Rp2066
ag1
(g22
S'\xf6(\x13\xb4\xb3\xfa\nB'
p2067
tp2068
Rp2069
ag1
(g22
S'\x8c\xca~\x9b\xf7!\x11B'
p2070
tp2071
Rp2072
a(lp2073
I2008
aI2009
aI2010
aI2011
aI2012
aI2013
aI2014
aI2015
aI2016
atp2074
a(g1
(g2
(S'S14'
p2075
I0
I1
tp2076
Rp2077
(I3
S'|'
p2078
NNNI14
I1
I0
tp2079
bS'Czech Republic'
p2080
tp2081
Rp2082
g1
(g2
(S'S60'
p2083
I0
I1
tp2084
Rp2085
(I3
S'|'
p2086
NNNI60
I1
I0
tp2087
bS'Improved sanitation facilities (% of population with access)'
p2088
tp2089
Rp2090
(lp2091
g1
(g22
S'\xa6\xfa\x01\x8c\x9f\x833B'
p2092
tp2093
Rp2094
ag1
(g22
S'b0:N\xcd\xd27B'
p2095
tp2096
Rp2097
ag1
(g22
S';\xdf\xcb\xfa\xa1\xf2>B'
p2098
tp2099
Rp2100
ag1
(g22
S'\xa4@\xb1*l0CB'
p2101
tp2102
Rp2103
ag1
(g22
S'\xcf\xb7\x95N\xf5\xb4>B'
p2104
tp2105
Rp2106
ag1
(g22
S'\x98^\xd4-\x0fsAB'
p2107
tp2108
Rp2109
ag1
(g22
S'\x938\x9f(B@DB'
p2110
tp2111
Rp2112
ag1
(g22
S'\x1d\x1a\xb06\x0f\x8dCB'
p2113
tp2114
Rp2115
ag1
(g22
S'\x8d\xc7\xe7\x19l\x9cCB'
p2116
tp2117
Rp2118
a(lp2119
I2008
aI2009
aI2010
aI2011
aI2012
aI2013
aI2014
aI2015
aI2016
atp2120
a(g1
(g2
(S'S7'
p2121
I0
I1
tp2122
Rp2123
(I3
S'|'
p2124
NNNI7
I1
I0
tp2125
bS'Denmark'
p2126
tp2127
Rp2128
g1
(g2
(S'S60'
p2129
I0
I1
tp2130
Rp2131
(I3
S'|'
p2132
NNNI60
I1
I0
tp2133
bS'Improved sanitation facilities (% of population with access)'
p2134
tp2135
Rp2136
(lp2137
g1
(g22
S'\xf4],n\x95\x8b?B'
p2138
tp2139
Rp2140
ag1
(g22
S'\x8f"\x8dO\x94_BB'
p2141
tp2142
Rp2143
ag1
(g22
S'5N!\x9c\xea\xd1EB'
p2144
tp2145
Rp2146
ag1
(g22
S'\x06\xd19\xc9]\x89HB'
p2147
tp2148
Rp2149
ag1
(g22
S'\x83\xd0}\x99\xa0ABB'
p2150
tp2151
Rp2152
ag1
(g22
S'F\x96G\xa6\x9f\x89BB'
p2153
tp2154
Rp2155
ag1
(g22
S'\xb6SQ\x9e\xefIEB'
p2156
tp2157
Rp2158
ag1
(g22
S'\xe9\xe6V\xc7OODB'
p2159
tp2160
Rp2161
ag1
(g22
S'\xdd\xd4\xcf\xef\x14cEB'
p2162
tp2163
Rp2164
a(lp2165
I2008
aI2009
aI2010
aI2011
aI2012
aI2013
aI2014
aI2015
aI2016
atp2166
a(g1
(g2
(S'S8'
p2167
I0
I1
tp2168
Rp2169
(I3
S'|'
p2170
NNNI8
I1
I0
tp2171
bS'Djibouti'
p2172
tp2173
Rp2174
g1
(g2
(S'S60'
p2175
I0
I1
tp2176
Rp2177
(I3
S'|'
p2178
NNNI60
I1
I0
tp2179
bS'Improved sanitation facilities (% of population with access)'
p2180
tp2181
Rp2182
(lp2183
g1
(g22
S'\x02\xb9`]_0\xb6A'
p2184
tp2185
Rp2186
ag1
(g22
S'\x1a\xfb\xa2?*\t\xbaA'
p2187
tp2188
Rp2189
ag1
(g22
S'e86\xafZH\xc1A'
p2190
tp2191
Rp2192
ag1
(g22
S'\xfc\xab\x19rk\xf7\xc4A'
p2193
tp2194
Rp2195
ag1
(g22
S'nhf\x9a\xb2H\xc1A'
p2196
tp2197
Rp2198
ag1
(g22
S'=\x7f:N*o\xbdA'
p2199
tp2200
Rp2201
ag1
(g22
S'g\xd3\xcd\x8f\xf8s\xc4A'
p2202
tp2203
Rp2204
ag1
(g22
S'\t\xc0\xf3\xf7\xdc\xaa\xc5A'
p2205
tp2206
Rp2207
ag1
(g22
S'\xa4\x1a\xe84\x86_\xcbA'
p2208
tp2209
Rp2210
a(lp2211
I2008
aI2009
aI2010
aI2011
aI2012
aI2013
aI2014
aI2015
aI2016
atp2212
a(g1
(g2
(S'S8'
p2213
I0
I1
tp2214
Rp2215
(I3
S'|'
p2216
NNNI8
I1
I0
tp2217
bS'Dominica'
p2218
tp2219
Rp2220
g1
(g2
(S'S60'
p2221
I0
I1
tp2222
Rp2223
(I3
S'|'
p2224
NNNI60
I1
I0
tp2225
bS'Improved sanitation facilities (% of population with access)'
p2226
tp2227
Rp2228
(lp2229
g1
(g22
S'\x1dUU\x99}\x8a\xabA'
p2230
tp2231
Rp2232
ag1
(g22
S'}\t\xed\xe9\xa3:\xaaA'
p2233
tp2234
Rp2235
ag1
(g22
S'9\t\xedMk\x87\xafA'
p2236
tp2237
Rp2238
ag1
(g22
S'o/\xa1Ic\xb8\xb2A'
p2239
tp2240
Rp2241
ag1
(g22
S'\xbe\x84\xf6\xb8\xf5\xf7\xb0A'
p2242
tp2243
Rp2244
ag1
(g22
S'FB{+<\xb1\xb0A'
p2245
tp2246
Rp2247
ag1
(g22
S'}\t\xed\xab\xd5\xb4\xb0A'
p2248
tp2249
Rp2250
ag1
(g22
S'\xbe\x84\xf6\xb8XT\xb0A'
p2251
tp2252
Rp2253
ag1
(g22
S'v\x1c\xc7\xa1\xac\xe9\xafA'
p2254
tp2255
Rp2256
a(lp2257
I2008
aI2009
aI2010
aI2011
aI2012
aI2013
aI2014
aI2015
aI2016
atp2258
a(g1
(g2
(S'S18'
p2259
I0
I1
tp2260
Rp2261
(I3
S'|'
p2262
NNNI18
I1
I0
tp2263
bS'Dominican Republic'
p2264
tp2265
Rp2266
g1
(g2
(S'S60'
p2267
I0
I1
tp2268
Rp2269
(I3
S'|'
p2270
NNNI60
I1
I0
tp2271
bS'Improved sanitation facilities (% of population with access)'
p2272
tp2273
Rp2274
(lp2275
g1
(g22
S'\x00\x00\x80\xd2\x96\xd4\x04B'
p2276
tp2277
Rp2278
ag1
(g22
S'\x00\x00\x80\x15g\x8f\tB'
p2279
tp2280
Rp2281
ag1
(g22
S'\x00\x00\x00\xab\xe3\x94\rB'
p2282
tp2283
Rp2284
ag1
(g22
S'\x00\x00\x80\x01\xf3\xca\x10B'
p2285
tp2286
Rp2287
ag1
(g22
S'\x00\x00\x00\xce#\r\nB'
p2288
tp2289
Rp2290
ag1
(g22
S'\x11\xf6{o\x9f\x8a\x13B'
p2291
tp2292
Rp2293
ag1
(g22
S'\x00\x00\x80\x8b\xf6~\x15B'
p2294
tp2295
Rp2296
ag1
(g22
S'\x00\x00\xc0\xf2\xc0\x02\x16B'
p2297
tp2298
Rp2299
ag1
(g22
S'\xa4p\x16\x01\x0f\xda\x15B'
p2300
tp2301
Rp2302
a(lp2303
I2008
aI2009
aI2010
aI2011
aI2012
aI2013
aI2014
aI2015
aI2016
atp2304
a(g1
(g2
(S'S39'
p2305
I0
I1
tp2306
Rp2307
(I3
S'|'
p2308
NNNI39
I1
I0
tp2309
bS'East Asia & Pacific (all income levels)'
p2310
tp2311
Rp2312
g1
(g2
(S'S60'
p2313
I0
I1
tp2314
Rp2315
(I3
S'|'
p2316
NNNI60
I1
I0
tp2317
bS'Improved sanitation facilities (% of population with access)'
p2318
tp2319
Rp2320
(lp2321
g1
(g22
S'Hw\x13\xbb\xc7\x12\x88B'
p2322
tp2323
Rp2324
ag1
(g22
S'\xae\xdd\x87\xe0\x87\x8a\x8bB'
p2325
tp2326
Rp2327
ag1
(g22
S'\\\x8f\xce<\x08\x07\x90B'
p2328
tp2329
Rp2330
ag1
(g22
S'R\xf1\xdeZ\x87\xb0\x92B'
p2331
tp2332
Rp2333
ag1
(g22
S')n\xd3\x968\x16\x8fB'
p2334
tp2335
Rp2336
ag1
(g22
S'\x8ftn\xd2_(\x94B'
p2337
tp2338
Rp2339
ag1
(g22
S'\xec! 6\xeb\x91\x98B'
p2340
tp2341
Rp2342
ag1
(g22
S'=\xed\x99LH\xca\x99B'
p2343
tp2344
Rp2345
ag1
(g22
S'3\xba\x03\xbf\x1f\x95\x9aB'
p2346
tp2347
Rp2348
a(lp2349
I2008
aI2009
aI2010
aI2011
aI2012
aI2013
aI2014
aI2015
aI2016
atp2350
a(g1
(g2
(S'S37'
p2351
I0
I1
tp2352
Rp2353
(I3
S'|'
p2354
NNNI37
I1
I0
tp2355
bS'East Asia & Pacific (developing only)'
p2356
tp2357
Rp2358
g1
(g2
(S'S60'
p2359
I0
I1
tp2360
Rp2361
(I3
S'|'
p2362
NNNI60
I1
I0
tp2363
bS'Improved sanitation facilities (% of population with access)'
p2364
tp2365
Rp2366
(lp2367
g1
(g22
S'\x00\xb8\x92(\xefuqB'
p2368
tp2369
Rp2370
ag1
(g22
S'{L\xe5h\xe8\x11tB'
p2371
tp2372
Rp2373
ag1
(g22
S'\x85\x83\xa5+\xf12xB'
p2374
tp2375
Rp2376
ag1
(g22
S'H\xa9\xa1r\xf1\x0b}B'
p2377
tp2378
Rp2379
ag1
(g22
S'\x9a\xf9\x05\x0b\xb5\xd6yB'
p2380
tp2381
Rp2382
ag1
(g22
S'\x8f\xf8:2\x10{\x81B'
p2383
tp2384
Rp2385
ag1
(g22
S'\xec\x0fU\x87\xee\xd3\x85B'
p2386
tp2387
Rp2388
ag1
(g22
S'\x9a-\xfd\x7f%Y\x87B'
p2389
tp2390
Rp2391
ag1
(g22
S'\xd7\xbdU\xce|!\x89B'
p2392
tp2393
Rp2394
a(lp2395
I2008
aI2009
aI2010
aI2011
aI2012
aI2013
aI2014
aI2015
aI2016
atp2396
a(g1
(g2
(S'S7'
p2397
I0
I1
tp2398
Rp2399
(I3
S'|'
p2400
NNNI7
I1
I0
tp2401
bS'Ecuador'
p2402
tp2403
Rp2404
g1
(g2
(S'S60'
p2405
I0
I1
tp2406
Rp2407
(I3
S'|'
p2408
NNNI60
I1
I0
tp2409
bS'Improved sanitation facilities (% of population with access)'
p2410
tp2411
Rp2412
(lp2413
g1
(g22
S'\x90\xb1\x05!~\xda\tB'
p2414
tp2415
Rp2416
ag1
(g22
S'V\x9f4\x03!\x8c\rB'
p2417
tp2418
Rp2419
ag1
(g22
S'F\xf6\x11vy\xb1\x10B'
p2420
tp2421
Rp2422
ag1
(g22
S't$\x9cg\xf9!\x15B'
p2423
tp2424
Rp2425
ag1
(g22
S'\xe2\xa9\xbc\r\xbc\x1a\x11B'
p2426
tp2427
Rp2428
ag1
(g22
S'\xc0\x9bw\xbd\xee\x1e\x16B'
p2429
tp2430
Rp2431
ag1
(g22
S' \xd2\x7f\x12\x92\xcb\x19B'
p2432
tp2433
Rp2434
ag1
(g22
S'"l\x98\xf8\xa8$\x1bB'
p2435
tp2436
Rp2437
ag1
(g22
S'i\x00\xe6\xc3\xfe>\x1dB'
p2438
tp2439
Rp2440
a(lp2441
I2008
aI2009
aI2010
aI2011
aI2012
aI2013
aI2014
aI2015
aI2016
atp2442
a(g1
(g2
(S'S11'
p2443
I0
I1
tp2444
Rp2445
(I3
S'|'
p2446
NNNI11
I1
I0
tp2447
bS'El Salvador'
p2448
tp2449
Rp2450
g1
(g2
(S'S60'
p2451
I0
I1
tp2452
Rp2453
(I3
S'|'
p2454
NNNI60
I1
I0
tp2455
bS'Improved sanitation facilities (% of population with access)'
p2456
tp2457
Rp2458
(lp2459
g1
(g22
S'\x00\x00\x00j\xea\xb8\xfaA'
p2460
tp2461
Rp2462
ag1
(g22
S'\x00\x00\x00\xb9\xcd\xb4\xfeA'
p2463
tp2464
Rp2465
ag1
(g22
S'\x00\x00\x80\x08\xf3\xea\x01B'
p2466
tp2467
Rp2468
ag1
(g22
S'\x00\x00\x80U\x10 \x03B'
p2469
tp2470
Rp2471
ag1
(g22
S'\xce\xd3o\xc6\x04\xfa\xfdA'
p2472
tp2473
Rp2474
ag1
(g22
S"\xff'^ \x03\x1e\x01B"
p2475
tp2476
Rp2477
ag1
(g22
S'\xf2AM\x98\xbfD\x04B'
p2478
tp2479
Rp2480
ag1
(g22
S'\x82\xe2\x98\x0f\x11Z\x05B'
p2481
tp2482
Rp2483
ag1
(g22
S'7\x89y\r\t\xa9\x06B'
p2484
tp2485
Rp2486
a(lp2487
I2008
aI2009
aI2010
aI2011
aI2012
aI2013
aI2014
aI2015
aI2016
atp2488
a(g1
(g2
(S'S17'
p2489
I0
I1
tp2490
Rp2491
(I3
S'|'
p2492
NNNI17
I1
I0
tp2493
bS'Equatorial Guinea'
p2494
tp2495
Rp2496
g1
(g2
(S'S60'
p2497
I0
I1
tp2498
Rp2499
(I3
S'|'
p2500
NNNI60
I1
I0
tp2501
bS'Improved sanitation facilities (% of population with access)'
p2502
tp2503
Rp2504
(lp2505
(lp2506
tp2507
a(g1
(g2
(S'S7'
p2508
I0
I1
tp2509
Rp2510
(I3
S'|'
p2511
NNNI7
I1
I0
tp2512
bS'Eritrea'
p2513
tp2514
Rp2515
g1
(g2
(S'S60'
p2516
I0
I1
tp2517
Rp2518
(I3
S'|'
p2519
NNNI60
I1
I0
tp2520
bS'Improved sanitation facilities (% of population with access)'
p2521
tp2522
Rp2523
(lp2524
(lp2525
tp2526
a(g1
(g2
(S'S7'
p2527
I0
I1
tp2528
Rp2529
(I3
S'|'
p2530
NNNI7
I1
I0
tp2531
bS'Estonia'
p2532
tp2533
Rp2534
g1
(g2
(S'S60'
p2535
I0
I1
tp2536
Rp2537
(I3
S'|'
p2538
NNNI60
I1
I0
tp2539
bS'Improved sanitation facilities (% of population with access)'
p2540
tp2541
Rp2542
(lp2543
g1
(g22
S'`v\xbcI\xa1_\x07B'
p2544
tp2545
Rp2546
ag1
(g22
S'Q\xdab\xc3\xae\x01\rB'
p2547
tp2548
Rp2549
ag1
(g22
S'\x8eu#\xcd\x00U\x12B'
p2550
tp2551
Rp2552
ag1
(g22
S'[\xd3A9b\x1e\x13B'
p2553
tp2554
Rp2555
ag1
(g22
S'H?\xc8d\xe7\xef\x07B'
p2556
tp2557
Rp2558
ag1
(g22
S'\x1ft\x9dlV0\rB'
p2559
tp2560
Rp2561
ag1
(g22
S'\xa9\x93\x82\x908\xe4\x13B'
p2562
tp2563
Rp2564
ag1
(g22
S'\xc1\xb9RB\xee\x93\x14B'
p2565
tp2566
Rp2567
ag1
(g22
S'z6\xef\x1e\xee\x94\x15B'
p2568
tp2569
Rp2570
a(lp2571
I2008
aI2009
aI2010
aI2011
aI2012
aI2013
aI2014
aI2015
aI2016
atp2572
a(g1
(g2
(S'S8'
p2573
I0
I1
tp2574
Rp2575
(I3
S'|'
p2576
NNNI8
I1
I0
tp2577
bS'Ethiopia'
p2578
tp2579
Rp2580
g1
(g2
(S'S60'
p2581
I0
I1
tp2582
Rp2583
(I3
S'|'
p2584
NNNI60
I1
I0
tp2585
bS'Improved sanitation facilities (% of population with access)'
p2586
tp2587
Rp2588
(lp2589
g1
(g22
S'\xab\t\xc3\x8a\xbfi\xf2A'
p2590
tp2591
Rp2592
ag1
(g22
S'<w\xea\xa9\xc7\xcb\xf3A'
p2593
tp2594
Rp2595
ag1
(g22
S'Z\xc7P\xe4\xe3\xdb\xf9A'
p2596
tp2597
Rp2598
ag1
(g22
S'B\xa0^\x8e\xc0\xf1\x01B'
p2599
tp2600
Rp2601
ag1
(g22
S'\xd0\xa1\xba#\x9c\xec\x00B'
p2602
tp2603
Rp2604
ag1
(g22
S'\\\x15U\x8f\x01\x98\x02B'
p2605
tp2606
Rp2607
ag1
(g22
S'\r`\xde)O\xdc\x05B'
p2608
tp2609
Rp2610
ag1
(g22
S'A\xf1\xa0\xe0\xf8\x83\nB'
p2611
tp2612
Rp2613
a(lp2614
I2008
aI2009
aI2010
aI2011
aI2012
aI2013
aI2014
aI2015
atp2615
a(g1
(g2
(S'S9'
p2616
I0
I1
tp2617
Rp2618
(I3
S'|'
p2619
NNNI9
I1
I0
tp2620
bS'Euro area'
p2621
tp2622
Rp2623
g1
(g2
(S'S60'
p2624
I0
I1
tp2625
Rp2626
(I3
S'|'
p2627
NNNI60
I1
I0
tp2628
bS'Improved sanitation facilities (% of population with access)'
p2629
tp2630
Rp2631
(lp2632
g1
(g22
S'\xd7\x1f\xd6\xff\x96S\x90B'
p2633
tp2634
Rp2635
ag1
(g22
S'\\n@\xa7n\xee\x92B'
p2636
tp2637
Rp2638
ag1
(g22
S'{\xe6\x89\xf4\x96\xf6\x96B'
p2639
tp2640
Rp2641
ag1
(g22
S'=w/N8d\x99B'
p2642
tp2643
Rp2644
ag1
(g22
S'\x1f\x9dZN}k\x93B'
p2645
tp2646
Rp2647
ag1
(g22
S'fG>B\xad\xf8\x94B'
p2648
tp2649
Rp2650
ag1
(g22
S'\x9a\xce\x10\xcf\xcaJ\x98B'
p2651
tp2652
Rp2653
ag1
(g22
S'\\\x08\xd4\xed6\xc8\x96B'
p2654
tp2655
Rp2656
ag1
(g22
S'{\x1a\xfc\xeba\x83\x97B'
p2657
tp2658
Rp2659
a(lp2660
I2008
aI2009
aI2010
aI2011
aI2012
aI2013
aI2014
aI2015
aI2016
atp2661
a(g1
(g2
(S'S41'
p2662
I0
I1
tp2663
Rp2664
(I3
S'|'
p2665
NNNI41
I1
I0
tp2666
bS'Europe & Central Asia (all income levels)'
p2667
tp2668
Rp2669
g1
(g2
(S'S60'
p2670
I0
I1
tp2671
Rp2672
(I3
S'|'
p2673
NNNI60
I1
I0
tp2674
bS'Improved sanitation facilities (% of population with access)'
p2675
tp2676
Rp2677
(lp2678
g1
(g22
S'R\x13\x07\x0eG\x97\x99B'
p2679
tp2680
Rp2681
ag1
(g22
S'f\x1c\x01\xd3\xa5>\x9eB'
p2682
tp2683
Rp2684
ag1
(g22
S'3i\x1f\xc7\xf7\x81\xa2B'
p2685
tp2686
Rp2687
ag1
(g22
S'f3\xe9\xe2\xd7\x86\xa4B'
p2688
tp2689
Rp2690
ag1
(g22
S'\\ \x08\x10u\xa5\x9eB'
p2691
tp2692
Rp2693
ag1
(g22
S'.\xd36z\xc0\xd2\xa0B'
p2694
tp2695
Rp2696
ag1
(g22
S'\x9aZ\x12>&\xb2\xa3B'
p2697
tp2698
Rp2699
ag1
(g22
S'3\xef\x8f\x84\xb8\xdd\xa2B'
p2700
tp2701
Rp2702
ag1
(g22
S'fF\xd4\x1c\xb3z\xa3B'
p2703
tp2704
Rp2705
a(lp2706
I2008
aI2009
aI2010
aI2011
aI2012
aI2013
aI2014
aI2015
aI2016
atp2707
a(g1
(g2
(S'S39'
p2708
I0
I1
tp2709
Rp2710
(I3
S'|'
p2711
NNNI39
I1
I0
tp2712
bS'Europe & Central Asia (developing only)'
p2713
tp2714
Rp2715
g1
(g2
(S'S60'
p2716
I0
I1
tp2717
Rp2718
(I3
S'|'
p2719
NNNI60
I1
I0
tp2720
bS'Improved sanitation facilities (% of population with access)'
p2721
tp2722
Rp2723
(lp2724
g1
(g22
S'J\xdc\xb0\x88\x93\x1fTB'
p2725
tp2726
Rp2727
ag1
(g22
S'\xcf\xcf.\xe2\xf0\x1fYB'
p2728
tp2729
Rp2730
ag1
(g22
S'\xa0\xb6\x9b\xaf\x88\x93`B'
p2731
tp2732
Rp2733
ag1
(g22
S'w2;\x832{dB'
p2734
tp2735
Rp2736
ag1
(g22
S'\xac\xf4I\x80\xc5\x9f\\B'
p2737
tp2738
Rp2739
ag1
(g22
S'10]|\x1e\xfa`B'
p2740
tp2741
Rp2742
ag1
(g22
S'\xf4\xb5\xa0\x98\x80\x91eB'
p2743
tp2744
Rp2745
ag1
(g22
S'3\xe7-\x08\x1d\xe8eB'
p2746
tp2747
Rp2748
ag1
(g22
S'J\x98\xb1&\x0c\xb2fB'
p2749
tp2750
Rp2751
a(lp2752
I2008
aI2009
aI2010
aI2011
aI2012
aI2013
aI2014
aI2015
aI2016
atp2753
a(g1
(g2
(S'S14'
p2754
I0
I1
tp2755
Rp2756
(I3
S'|'
p2757
NNNI14
I1
I0
tp2758
bS'European Union'
p2759
tp2760
Rp2761
g1
(g2
(S'S60'
p2762
I0
I1
tp2763
Rp2764
(I3
S'|'
p2765
NNNI60
I1
I0
tp2766
bS'Improved sanitation facilities (% of population with access)'
p2767
tp2768
Rp2769
(lp2770
g1
(g22
S'Hp\xd2\xc1\x87q\x96B'
p2771
tp2772
Rp2773
ag1
(g22
S'=\xe2n\xdcSo\x9aB'
p2774
tp2775
Rp2776
ag1
(g22
S'\xb8\x05$\xe7\xfa\n\xa0B'
p2777
tp2778
Rp2779
ag1
(g22
S'\x85\xfe\x8bl\x89\x85\xa1B'
p2780
tp2781
Rp2782
ag1
(g22
S'\x8f\x8c\x12>]:\x9aB'
p2783
tp2784
Rp2785
ag1
(g22
S'\xc3\xd3).\xbbZ\x9cB'
p2786
tp2787
Rp2788
ag1
(g22
S'Rj\xe8\xe5^b\xa0B'
p2789
tp2790
Rp2791
ag1
(g22
S'H\xee\xc0\x16\xd8\xfb\x9eB'
p2792
tp2793
Rp2794
ag1
(g22
S'\xec\x15\xaf\xef\xca\xdf\x9fB'
p2795
tp2796
Rp2797
a(lp2798
I2008
aI2009
aI2010
aI2011
aI2012
aI2013
aI2014
aI2015
aI2016
atp2799
a(g1
(g2
(S'S14'
p2800
I0
I1
tp2801
Rp2802
(I3
S'|'
p2803
NNNI14
I1
I0
tp2804
bS'Faeroe Islands'
p2805
tp2806
Rp2807
g1
(g2
(S'S60'
p2808
I0
I1
tp2809
Rp2810
(I3
S'|'
p2811
NNNI60
I1
I0
tp2812
bS'Improved sanitation facilities (% of population with access)'
p2813
tp2814
Rp2815
(lp2816
g1
(g22
S'\xb4[1\xb8 H\xcdA'
p2817
tp2818
Rp2819
ag1
(g22
S'x\x9c2\xc7!\xc4\xd0A'
p2820
tp2821
Rp2822
ag1
(g22
S'5^t\xbe\x99\xd6\xd5A'
p2823
tp2824
Rp2825
ag1
(g22
S'\xc7F:\x8e\x89\x98\xd6A'
p2826
tp2827
Rp2828
ag1
(g22
S'\xc58\xf3\xeb\\\xcf\xd2A'
p2829
tp2830
Rp2831
ag1
(g22
S'\xc5\x1b-j\x0bp\xd2A'
p2832
tp2833
Rp2834
ag1
(g22
S'\x81C\x1e\x88\x17\xc2\xd5A'
p2835
tp2836
Rp2837
a(lp2838
I2008
aI2009
aI2010
aI2011
aI2012
aI2013
aI2014
atp2839
a(g1
(g2
(S'S4'
p2840
I0
I1
tp2841
Rp2842
(I3
S'|'
p2843
NNNI4
I1
I0
tp2844
bS'Fiji'
p2845
tp2846
Rp2847
g1
(g2
(S'S60'
p2848
I0
I1
tp2849
Rp2850
(I3
S'|'
p2851
NNNI60
I1
I0
tp2852
bS'Improved sanitation facilities (% of population with access)'
p2853
tp2854
Rp2855
(lp2856
g1
(g22
S'.\xc5\xc7\r#}\xdeA'
p2857
tp2858
Rp2859
ag1
(g22
S'_A\xec\x04\xc9\xe6\xe0A'
p2860
tp2861
Rp2862
ag1
(g22
S'\xa90\xf6\xdc\xf5\xcf\xe0A'
p2863
tp2864
Rp2865
ag1
(g22
S'%\xe9\x88\x0e\x94\x9f\xe4A'
p2866
tp2867
Rp2868
ag1
(g22
S'\r\x8e\xae\xd5~\x9a\xdaA'
p2869
tp2870
Rp2871
ag1
(g22
S'\xe5\nC\x1d\x97O\xe0A'
p2872
tp2873
Rp2874
ag1
(g22
S'F\xb6\xdcW~\xe1\xe3A'
p2875
tp2876
Rp2877
ag1
(g22
S'\xaa\xd4\xb6\x90d\xb2\xe4A'
p2878
tp2879
Rp2880
ag1
(g22
S'\xcd\x92\xbdK\x88*\xe7A'
p2881
tp2882
Rp2883
a(lp2884
I2008
aI2009
aI2010
aI2011
aI2012
aI2013
aI2014
aI2015
aI2016
atp2885
a(g1
(g2
(S'S7'
p2886
I0
I1
tp2887
Rp2888
(I3
S'|'
p2889
NNNI7
I1
I0
tp2890
bS'Finland'
p2891
tp2892
Rp2893
g1
(g2
(S'S60'
p2894
I0
I1
tp2895
Rp2896
(I3
S'|'
p2897
NNNI60
I1
I0
tp2898
bS'Improved sanitation facilities (% of population with access)'
p2899
tp2900
Rp2901
(lp2902
g1
(g22
S'\x17hG\xba\xc5X4B'
p2903
tp2904
Rp2905
ag1
(g22
S'\xdf\x8f\xc4{Qn7B'
p2906
tp2907
Rp2908
ag1
(g22
S'=\n\xac\xdd\xd5\x8f<B'
p2909
tp2910
Rp2911
ag1
(g22
S'\xb2\x8d\xbey\xafy@B'
p2912
tp2913
Rp2914
ag1
(g22
S'\xfe\xa3\xd7\xc6K\xb06B'
p2915
tp2916
Rp2917
ag1
(g22
S'\x1bo\x11\x97\x7f\xdf8B'
p2918
tp2919
Rp2920
ag1
(g22
S'\xa2\x85qU\xca\x98=B'
p2921
tp2922
Rp2923
ag1
(g22
S'\xcba|2O&<B'
p2924
tp2925
Rp2926
ag1
(g22
S"=*\x1e\xa6'\x8d<B"
p2927
tp2928
Rp2929
a(lp2930
I2008
aI2009
aI2010
aI2011
aI2012
aI2013
aI2014
aI2015
aI2016
atp2931
a(g1
(g2
(S'S40'
p2932
I0
I1
tp2933
Rp2934
(I3
S'|'
p2935
NNNI40
I1
I0
tp2936
bS'Fragile and conflict affected situations'
p2937
tp2938
Rp2939
g1
(g2
(S'S60'
p2940
I0
I1
tp2941
Rp2942
(I3
S'|'
p2943
NNNI60
I1
I0
tp2944
bS'Improved sanitation facilities (% of population with access)'
p2945
tp2946
Rp2947
(lp2948
g1
(g22
S'ucJ\x07W\xf4@B'
p2949
tp2950
Rp2951
ag1
(g22
S'm\x97\x04:\x87\x86BB'
p2952
tp2953
Rp2954
ag1
(g22
S"'\xb1Q1-#EB"
p2955
tp2956
Rp2957
ag1
(g22
S'\xd3-\x0eJ\xfc\x18KB'
p2958
tp2959
Rp2960
ag1
(g22
S'\x85\x0b\xadY\xa7RJB'
p2961
tp2962
Rp2963
ag1
(g22
S'\xf0w\x14\xd6\xb5\x80MB'
p2964
tp2965
Rp2966
ag1
(g22
S'=\xca\xcef\xce&NB'
p2967
tp2968
Rp2969
ag1
(g22
S'\xb2U&b\xb2\x81QB'
p2970
tp2971
Rp2972
a(lp2973
I2008
aI2009
aI2010
aI2011
aI2012
aI2013
aI2014
aI2015
atp2974
a(g1
(g2
(S'S6'
p2975
I0
I1
tp2976
Rp2977
(I3
S'|'
p2978
NNNI6
I1
I0
tp2979
bS'France'
p2980
tp2981
Rp2982
g1
(g2
(S'S60'
p2983
I0
I1
tp2984
Rp2985
(I3
S'|'
p2986
NNNI60
I1
I0
tp2987
bS'Improved sanitation facilities (% of population with access)'
p2988
tp2989
Rp2990
(lp2991
g1
(g22
S"'\xa9k\xa0\xc89eB"
p2992
tp2993
Rp2994
ag1
(g22
S'N6\x99Ox*hB'
p2995
tp2996
Rp2997
ag1
(g22
S'\x02\x8f\xe1@F\x8elB'
p2998
tp2999
Rp3000
ag1
(g22
S'\xf6\x980h\xe8\xbboB'
p3001
tp3002
Rp3003
ag1
(g22
S'\xfc\xad\x7f\x18x\xb2hB'
p3004
tp3005
Rp3006
ag1
(g22
S'\xb6C\xea\x00\xa6MjB'
p3007
tp3008
Rp3009
ag1
(g22
S'\x1fM\xf6\x8c/9nB'
p3010
tp3011
Rp3012
ag1
(g22
S'\xc5\x90dF\xa7\xf1lB'
p3013
tp3014
Rp3015
ag1
(g22
S'R\x98#x:\xb9mB'
p3016
tp3017
Rp3018
a(lp3019
I2008
aI2009
aI2010
aI2011
aI2012
aI2013
aI2014
aI2015
aI2016
atp3020
a(g1
(g2
(S'S16'
p3021
I0
I1
tp3022
Rp3023
(I3
S'|'
p3024
NNNI16
I1
I0
tp3025
bS'French Polynesia'
p3026
tp3027
Rp3028
g1
(g2
(S'S60'
p3029
I0
I1
tp3030
Rp3031
(I3
S'|'
p3032
NNNI60
I1
I0
tp3033
bS'Improved sanitation facilities (% of population with access)'
p3034
tp3035
Rp3036
(lp3037
g1
(g22
S'\x18[\x9ey.\xbe\xe1A'
p3038
tp3039
Rp3040
ag1
(g22
S'G\xc9g\xbe\xd9\x9d\xe0A'
p3041
tp3042
Rp3043
ag1
(g22
S'\x97\xa8B`^#\xe3A'
p3044
tp3045
Rp3046
ag1
(g22
S'}\\\x08(\x94w\xe6A'
p3047
tp3048
Rp3049
ag1
(g22
S'L\x8e\x06\xe8\x86\xd8\xe2A'
p3050
tp3051
Rp3052
ag1
(g22
S'\xa4p?\xb1\xce]\xe2A'
p3053
tp3054
Rp3055
ag1
(g22
S',e\xff\x19\xb2e\xe2A'
p3056
tp3057
Rp3058
ag1
(g22
S'v2\x90\x96X.\xe1A'
p3059
tp3060
Rp3061
ag1
(g22
S'\x16\xf6Y\xdeb\xaf\xe1A'
p3062
tp3063
Rp3064
a(lp3065
I2008
aI2009
aI2010
aI2011
aI2012
aI2013
aI2014
aI2015
aI2016
atp3066
a(g1
(g2
(S'S5'
p3067
I0
I1
tp3068
Rp3069
(I3
S'|'
p3070
NNNI5
I1
I0
tp3071
bS'Gabon'
p3072
tp3073
Rp3074
g1
(g2
(S'S60'
p3075
I0
I1
tp3076
Rp3077
(I3
S'|'
p3078
NNNI60
I1
I0
tp3079
bS'Improved sanitation facilities (% of population with access)'
p3080
tp3081
Rp3082
(lp3083
g1
(g22
S'\x9c\xa7\xe0\x0c\xfe;\xe9A'
p3084
tp3085
Rp3086
a(lp3087
I2008
atp3088
a(g1
(g2
(S'S7'
p3089
I0
I1
tp3090
Rp3091
(I3
S'|'
p3092
NNNI7
I1
I0
tp3093
bS'Georgia'
p3094
tp3095
Rp3096
g1
(g2
(S'S60'
p3097
I0
I1
tp3098
Rp3099
(I3
S'|'
p3100
NNNI60
I1
I0
tp3101
bS'Improved sanitation facilities (% of population with access)'
p3102
tp3103
Rp3104
(lp3105
g1
(g22
S'\n\xd7c\xf7\x89\xd8\xe9A'
p3106
tp3107
Rp3108
ag1
(g22
S'\x8f\x99!\x95b\xf8\xf0A'
p3109
tp3110
Rp3111
ag1
(g22
S'\xa4G\x9d\xc4\xc5\x8f\xf7A'
p3112
tp3113
Rp3114
ag1
(g22
S'\xaeG\x99\xe9\xfe:\xfeA'
p3115
tp3116
Rp3117
ag1
(g22
S'q=^\x07Y\x87\xf5A'
p3118
tp3119
Rp3120
ag1
(g22
S'\xc3\xf5\xb0f,\xa6\xf9A'
p3121
tp3122
Rp3123
ag1
(g22
S'\xe1zD\x94\x00\x14\x01B'
p3124
tp3125
Rp3126
ag1
(g22
S'\xb8\x1e\xed\xfb\xa1J\x03B'
p3127
tp3128
Rp3129
ag1
(g22
S'\n\xd7\xec\x83\xb5\x89\x03B'
p3130
tp3131
Rp3132
a(lp3133
I2008
aI2009
aI2010
aI2011
aI2012
aI2013
aI2014
aI2015
aI2016
atp3134
a(g1
(g2
(S'S7'
p3135
I0
I1
tp3136
Rp3137
(I3
S'|'
p3138
NNNI7
I1
I0
tp3139
bS'Germany'
p3140
tp3141
Rp3142
g1
(g2
(S'S60'
p3143
I0
I1
tp3144
Rp3145
(I3
S'|'
p3146
NNNI60
I1
I0
tp3147
bS'Improved sanitation facilities (% of population with access)'
p3148
tp3149
Rp3150
(lp3151
g1
(g22
S'f^c\xb6n?pB'
p3152
tp3153
Rp3154
ag1
(g22
S'\xe1J\xf9y#\xc6rB'
p3155
tp3156
Rp3157
ag1
(g22
S'=\xde\\\x9d\xd0hvB'
p3158
tp3159
Rp3160
ag1
(g22
S'\xcd\xb8\xbfU\x10MxB'
p3161
tp3162
Rp3163
ag1
(g22
S'\xe1j\xc8%d\xferB'
p3164
tp3165
Rp3166
ag1
(g22
S'H!T\x8edMuB'
p3167
tp3168
Rp3169
ag1
(g22
S'\x14\xee\x06(,\xeexB'
p3170
tp3171
Rp3172
ag1
(g22
S'\xc3\xd5N(\x82OwB'
p3173
tp3174
Rp3175
ag1
(g22
S'3\x8bW\\\r4xB'
p3176
tp3177
Rp3178
a(lp3179
I2008
aI2009
aI2010
aI2011
aI2012
aI2013
aI2014
aI2015
aI2016
atp3180
a(g1
(g2
(S'S5'
p3181
I0
I1
tp3182
Rp3183
(I3
S'|'
p3184
NNNI5
I1
I0
tp3185
bS'Ghana'
p3186
tp3187
Rp3188
g1
(g2
(S'S60'
p3189
I0
I1
tp3190
Rp3191
(I3
S'|'
p3192
NNNI60
I1
I0
tp3193
bS'Improved sanitation facilities (% of population with access)'
p3194
tp3195
Rp3196
(lp3197
g1
(g22
S'\x00\x91\xb5\x99j\x85\xf9A'
p3198
tp3199
Rp3200
ag1
(g22
S'I\xa2\x17\xc8\xf3\x9d\xffA'
p3201
tp3202
Rp3203
ag1
(g22
S'\xe1\xfa\x82s\x89\x93\x03B'
p3204
tp3205
Rp3206
ag1
(g22
S'94\x9e*\x81\xa5\x07B'
p3207
tp3208
Rp3209
ag1
(g22
S'\x00\x00\xc0a\xa8\xcf\x05B'
p3210
tp3211
Rp3212
ag1
(g22
S'\x00\x00\x80K\xc8\x1e\x0bB'
p3213
tp3214
Rp3215
ag1
(g22
S'\x00\x00\xe0\x83Db\x13B'
p3216
tp3217
Rp3218
ag1
(g22
S'\x00\x00\xc0s\xc0\x86\x16B'
p3219
tp3220
Rp3221
ag1
(g22
S'\x00\x00\x00\x15#z\x16B'
p3222
tp3223
Rp3224
a(lp3225
I2008
aI2009
aI2010
aI2011
aI2012
aI2013
aI2014
aI2015
aI2016
atp3226
a(g1
(g2
(S'S6'
p3227
I0
I1
tp3228
Rp3229
(I3
S'|'
p3230
NNNI6
I1
I0
tp3231
bS'Greece'
p3232
tp3233
Rp3234
g1
(g2
(S'S60'
p3235
I0
I1
tp3236
Rp3237
(I3
S'|'
p3238
NNNI60
I1
I0
tp3239
bS'Improved sanitation facilities (% of population with access)'
p3240
tp3241
Rp3242
(lp3243
g1
(g22
S'\x15}\xcfOn\x182B'
p3244
tp3245
Rp3246
ag1
(g22
S'C\xcd\x99\xfdM\xfd5B'
p3247
tp3248
Rp3249
ag1
(g22
S'\x04\x16/\x94*\xf6;B'
p3250
tp3251
Rp3252
ag1
(g22
S'\\\x7f\x8a\xe4\x00\xb5@B'
p3253
tp3254
Rp3255
ag1
(g22
S'{\x94\xc0\xe1,\x008B'
p3256
tp3257
Rp3258
ag1
(g22
S'\xd4J\x07- f6B'
p3259
tp3260
Rp3261
ag1
(g22
S'-2a$?\xc47B'
p3262
tp3263
Rp3264
ag1
(g22
S'\xee\xeb\x820\xce\xdc1B'
p3265
tp3266
Rp3267
ag1
(g22
S'\x86\xba{\x04g\xc91B'
p3268
tp3269
Rp3270
a(lp3271
I2008
aI2009
aI2010
aI2011
aI2012
aI2013
aI2014
aI2015
aI2016
atp3272
a(g1
(g2
(S'S9'
p3273
I0
I1
tp3274
Rp3275
(I3
S'|'
p3276
NNNI9
I1
I0
tp3277
bS'Greenland'
p3278
tp3279
Rp3280
g1
(g2
(S'S60'
p3281
I0
I1
tp3282
Rp3283
(I3
S'|'
p3284
NNNI60
I1
I0
tp3285
bS'Improved sanitation facilities (% of population with access)'
p3286
tp3287
Rp3288
(lp3289
(lp3290
tp3291
a(g1
(g2
(S'S7'
p3292
I0
I1
tp3293
Rp3294
(I3
S'|'
p3295
NNNI7
I1
I0
tp3296
bS'Grenada'
p3297
tp3298
Rp3299
g1
(g2
(S'S60'
p3300
I0
I1
tp3301
Rp3302
(I3
S'|'
p3303
NNNI60
I1
I0
tp3304
bS'Improved sanitation facilities (% of population with access)'
p3305
tp3306
Rp3307
(lp3308
g1
(g22
S'\xfd\xd9Kz\xef\xfa\xb9A'
p3309
tp3310
Rp3311
ag1
(g22
S'\xf2%\xb4E\x15\x7f\xbaA'
p3312
tp3313
Rp3314
ag1
(g22
S'\xe1%\xb4\xe5(F\xbdA'
p3315
tp3316
Rp3317
ag1
(g22
S'\x88\xbd\x84\xb0\xf5\xf3\xbdA'
p3318
tp3319
Rp3320
ag1
(g22
S'WB{5\x0e\xc2\xb9A'
p3321
tp3322
Rp3323
ag1
(g22
S'^/\xa1\x9b_m\xb9A'
p3324
tp3325
Rp3326
ag1
(g22
S'\x9d\x84\xf6B\xa4\xcf\xb9A'
p3327
tp3328
Rp3329
ag1
(g22
S'1{\t]\x89\x0b\xbaA'
p3330
tp3331
Rp3332
ag1
(g22
S'\xf6\xec%\x0e\xb7,\xbbA'
p3333
tp3334
Rp3335
a(lp3336
I2008
aI2009
aI2010
aI2011
aI2012
aI2013
aI2014
aI2015
aI2016
atp3337
a(g1
(g2
(S'S4'
p3338
I0
I1
tp3339
Rp3340
(I3
S'|'
p3341
NNNI4
I1
I0
tp3342
bS'Guam'
p3343
tp3344
Rp3345
g1
(g2
(S'S60'
p3346
I0
I1
tp3347
Rp3348
(I3
S'|'
p3349
NNNI60
I1
I0
tp3350
bS'Improved sanitation facilities (% of population with access)'
p3351
tp3352
Rp3353
(lp3354
(lp3355
tp3356
a(g1
(g2
(S'S9'
p3357
I0
I1
tp3358
Rp3359
(I3
S'|'
p3360
NNNI9
I1
I0
tp3361
bS'Guatemala'
p3362
tp3363
Rp3364
g1
(g2
(S'S60'
p3365
I0
I1
tp3366
Rp3367
(I3
S'|'
p3368
NNNI60
I1
I0
tp3369
bS'Improved sanitation facilities (% of population with access)'
p3370
tp3371
Rp3372
(lp3373
g1
(g22
S'\x00\x00\x00&\xc8#\x06B'
p3374
tp3375
Rp3376
ag1
(g22
S'\x00\x00\x00\xde\x9b\xc1\tB'
p3377
tp3378
Rp3379
ag1
(g22
S'\x00\x00\x00\xe1\x86\xa2\rB'
p3380
tp3381
Rp3382
ag1
(g22
S'\xfc\x98\xf6"\xfct\x0fB'
p3383
tp3384
Rp3385
ag1
(g22
S'\x97\x7f?-\xbdX\nB'
p3386
tp3387
Rp3388
ag1
(g22
S'P\rG\xcd\xb7\x0e\x0fB'
p3389
tp3390
Rp3391
ag1
(g22
S'K\xeawu_\x89\x12B'
p3392
tp3393
Rp3394
ag1
(g22
S'\t[L\xc5\xe9\x91\x12B'
p3395
tp3396
Rp3397
ag1
(g22
S'\x89\x01\x1e4h9\x13B'
p3398
tp3399
Rp3400
a(lp3401
I2008
aI2009
aI2010
aI2011
aI2012
aI2013
aI2014
aI2015
aI2016
atp3402
a(g1
(g2
(S'S6'
p3403
I0
I1
tp3404
Rp3405
(I3
S'|'
p3406
NNNI6
I1
I0
tp3407
bS'Guinea'
p3408
tp3409
Rp3410
g1
(g2
(S'S60'
p3411
I0
I1
tp3412
Rp3413
(I3
S'|'
p3414
NNNI60
I1
I0
tp3415
bS'Improved sanitation facilities (% of population with access)'
p3416
tp3417
Rp3418
(lp3419
g1
(g22
S'\x00\x00\x000\xab\x14\xd0A'
p3420
tp3421
Rp3422
ag1
(g22
S'\x00\x00\x00DnX\xd3A'
p3423
tp3424
Rp3425
ag1
(g22
S'\x00\x00\x00\xa03d\xd8A'
p3426
tp3427
Rp3428
ag1
(g22
S'\x00\x00\x00d\x9a{\xdcA'
p3429
tp3430
Rp3431
ag1
(g22
S'\x00\x00\x00d\xd6\x8f\xd7A'
p3432
tp3433
Rp3434
ag1
(g22
S'\x00\x00\x00\xc4F3\xdcA'
p3435
tp3436
Rp3437
ag1
(g22
S'\x00\x00\x00\xe2\x86\x13\xe5A'
p3438
tp3439
Rp3440
ag1
(g22
S'\x00\x00\x00\xfc\xc3\x81\xe8A'
p3441
tp3442
Rp3443
ag1
(g22
S'\x00\x00\x00<\x0b(\xe8A'
p3444
tp3445
Rp3446
a(lp3447
I2008
aI2009
aI2010
aI2011
aI2012
aI2013
aI2014
aI2015
aI2016
atp3448
a(g1
(g2
(S'S13'
p3449
I0
I1
tp3450
Rp3451
(I3
S'|'
p3452
NNNI13
I1
I0
tp3453
bS'Guinea-Bissau'
p3454
tp3455
Rp3456
g1
(g2
(S'S60'
p3457
I0
I1
tp3458
Rp3459
(I3
S'|'
p3460
NNNI60
I1
I0
tp3461
bS'Improved sanitation facilities (% of population with access)'
p3462
tp3463
Rp3464
(lp3465
g1
(g22
S'\x18\xb3\x05/\xe9\xb4\xa2A'
p3466
tp3467
Rp3468
ag1
(g22
S'\x9f!\xc4\xc2\x86\xf3\xa4A'
p3469
tp3470
Rp3471
ag1
(g22
S'\xcfN\xb6\r\x05b\xadA'
p3472
tp3473
Rp3474
ag1
(g22
S'\x06\xf6\xd4\xd8#\xd0\xb1A'
p3475
tp3476
Rp3477
ag1
(g22
S'\x95a0)>j\xb2A'
p3478
tp3479
Rp3480
ag1
(g22
S'\x8f5\xe7\x015\xc1\xb2A'
p3481
tp3482
Rp3483
ag1
(g22
S'\xdc\xd5\x9b\x15\xfbE\xb6A'
p3484
tp3485
Rp3486
ag1
(g22
S'\xe9+\\\x94%Q\xb1A'
p3487
tp3488
Rp3489
a(lp3490
I2008
aI2009
aI2010
aI2011
aI2012
aI2013
aI2014
aI2015
atp3491
a(g1
(g2
(S'S6'
p3492
I0
I1
tp3493
Rp3494
(I3
S'|'
p3495
NNNI6
I1
I0
tp3496
bS'Guyana'
p3497
tp3498
Rp3499
g1
(g2
(S'S60'
p3500
I0
I1
tp3501
Rp3502
(I3
S'|'
p3503
NNNI60
I1
I0
tp3504
bS'Improved sanitation facilities (% of population with access)'
p3505
tp3506
Rp3507
(lp3508
g1
(g22
S'\x00\x00\x00LI\x9e\xccA'
p3509
tp3510
Rp3511
ag1
(g22
S'\x00\x00\x00\x8c\x10\xcb\xd0A'
p3512
tp3513
Rp3514
ag1
(g22
S'\x00\x00\x00\x0e\x05k\xd3A'
p3515
tp3516
Rp3517
ag1
(g22
S'\xac\xa8??\x8ag\xd9A'
p3518
tp3519
Rp3520
ag1
(g22
S'\x05\x8b\x1f\xfayz\xd6A'
p3521
tp3522
Rp3523
ag1
(g22
S'\xbc\x05\xee?|v\xd9A'
p3524
tp3525
Rp3526
ag1
(g22
S'\x8a\x93>\xf7\x15\xe1\xe0A'
p3527
tp3528
Rp3529
ag1
(g22
S'z6\xc9U\x99\xff\xe2A'
p3530
tp3531
Rp3532
ag1
(g22
S'z\xfcB+6\x9c\xe1A'
p3533
tp3534
Rp3535
a(lp3536
I2008
aI2009
aI2010
aI2011
aI2012
aI2013
aI2014
aI2015
aI2016
atp3537
a(g1
(g2
(S'S5'
p3538
I0
I1
tp3539
Rp3540
(I3
S'|'
p3541
NNNI5
I1
I0
tp3542
bS'Haiti'
p3543
tp3544
Rp3545
g1
(g2
(S'S60'
p3546
I0
I1
tp3547
Rp3548
(I3
S'|'
p3549
NNNI60
I1
I0
tp3550
bS'Improved sanitation facilities (% of population with access)'
p3551
tp3552
Rp3553
(lp3554
g1
(g22
S'\x00\x00\x00\xe0\xd7!\xdcA'
p3555
tp3556
Rp3557
ag1
(g22
S'\x00\x00\x00\xf4\xd2\x0f\xe0A'
p3558
tp3559
Rp3560
ag1
(g22
S'\x00\x00\x00\xa8W\xe9\xe1A'
p3561
tp3562
Rp3563
ag1
(g22
S'\xd7/\xdb\xbc\x04n\xe5A'
p3564
tp3565
Rp3566
ag1
(g22
S'\x8c\x10.\xd3\x93\x07\xe5A'
p3567
tp3568
Rp3569
ag1
(g22
S'\xe5P3@\xa4\x02\xf0A'
p3570
tp3571
Rp3572
ag1
(g22
S'\xe5\xc4eH&\x87\xf0A'
p3573
tp3574
Rp3575
ag1
(g22
S'\xcb\xf8\x9d\x82\x8bI\xefA'
p3576
tp3577
Rp3578
ag1
(g22
S'\xde\x025c\x16\x85\xf0A'
p3579
tp3580
Rp3581
a(lp3582
I2008
aI2009
aI2010
aI2011
aI2012
aI2013
aI2014
aI2015
aI2016
atp3583
a(g1
(g2
(S'S38'
p3584
I0
I1
tp3585
Rp3586
(I3
S'|'
p3587
NNNI38
I1
I0
tp3588
bS'Heavily indebted poor countries (HIPC)'
p3589
tp3590
Rp3591
g1
(g2
(S'S60'
p3592
I0
I1
tp3593
Rp3594
(I3
S'|'
p3595
NNNI60
I1
I0
tp3596
bS'Improved sanitation facilities (% of population with access)'
p3597
tp3598
Rp3599
(lp3600
g1
(g22
S'\xb0Bm\x17\x97\x117B'
p3601
tp3602
Rp3603
ag1
(g22
S'\xe9\x06\xb9\x16z\x91;B'
p3604
tp3605
Rp3606
ag1
(g22
S'`\x85\xfa\xaa\xd7\xf5@B'
p3607
tp3608
Rp3609
ag1
(g22
S'%\x96\x1a\n\x87.EB'
p3610
tp3611
Rp3612
ag1
(g22
S'\xee\xcci\xae\x8d\xdfBB'
p3613
tp3614
Rp3615
ag1
(g22
S'u\xa3\xe86\xff$FB'
p3616
tp3617
Rp3618
ag1
(g22
S'+7R\x80\xd6\x06KB'
p3619
tp3620
Rp3621
ag1
(g22
S'\xe9\xd6\x8d\x86\x03\xa4MB'
p3622
tp3623
Rp3624
ag1
(g22
S'\xc9F@h\n\xb6OB'
p3625
tp3626
Rp3627
a(lp3628
I2008
aI2009
aI2010
aI2011
aI2012
aI2013
aI2014
aI2015
aI2016
atp3629
a(g1
(g2
(S'S11'
p3630
I0
I1
tp3631
Rp3632
(I3
S'|'
p3633
NNNI11
I1
I0
tp3634
bS'High income'
p3635
tp3636
Rp3637
g1
(g2
(S'S60'
p3638
I0
I1
tp3639
Rp3640
(I3
S'|'
p3641
NNNI60
I1
I0
tp3642
bS'Improved sanitation facilities (% of population with access)'
p3643
tp3644
Rp3645
(lp3646
g1
(g22
S'\xcd\xe0\x8c \xadb\xa6B'
p3647
tp3648
Rp3649
ag1
(g22
S'f\xa4\xf9M@"\xaaB'
p3650
tp3651
Rp3652
ag1
(g22
S'f\x8c~v5\xb2\xaeB'
p3653
tp3654
Rp3655
ag1
(g22
S'\xe6\x89\x04\xc1N\xdd\xb0B'
p3656
tp3657
Rp3658
ag1
(g22
S'3w\xd6H\xe7\xc1\xa9B'
p3659
tp3660
Rp3661
ag1
(g22
S'\x9a\xed\xbe\xb9\xa7`\xadB'
p3662
tp3663
Rp3664
ag1
(g22
S'\x1a\xe0\x81x\xf6\x18\xb1B'
p3665
tp3666
Rp3667
ag1
(g22
S'\x9a\xa6\xfe?K\xf5\xb0B'
p3668
tp3669
Rp3670
ag1
(g22
S'\xb3v?&\xefC\xb1B'
p3671
tp3672
Rp3673
a(lp3674
I2008
aI2009
aI2010
aI2011
aI2012
aI2013
aI2014
aI2015
aI2016
atp3675
a(g1
(g2
(S'S20'
p3676
I0
I1
tp3677
Rp3678
(I3
S'|'
p3679
NNNI20
I1
I0
tp3680
bS'High income: nonOECD'
p3681
tp3682
Rp3683
g1
(g2
(S'S60'
p3684
I0
I1
tp3685
Rp3686
(I3
S'|'
p3687
NNNI60
I1
I0
tp3688
bS'Improved sanitation facilities (% of population with access)'
p3689
tp3690
Rp3691
(lp3692
g1
(g22
S'\x85\x7f\x11\x13\x17\xa4wB'
p3693
tp3694
Rp3695
ag1
(g22
S'\x14ZV\xf7\xcbJ|B'
p3696
tp3697
Rp3698
ag1
(g22
S'\xaei\xd1\x9e?\x02\x81B'
p3699
tp3700
Rp3701
ag1
(g22
S'\x1f7\x88\x03\xef\xcc\x83B'
p3702
tp3703
Rp3704
ag1
(g22
S'\xae\x13\x7f\xe9B\x82\x7fB'
p3705
tp3706
Rp3707
ag1
(g22
S'\x14\xeaR\x1e\xf4Q\x83B'
p3708
tp3709
Rp3710
ag1
(g22
S'\xc3\xa3\x90d\n\xe2\x86B'
p3711
tp3712
Rp3713
ag1
(g22
S'\n\xa3|\x0c\x07U\x88B'
p3714
tp3715
Rp3716
ag1
(g22
S'fn\xf5\xbe\xafz\x89B'
p3717
tp3718
Rp3719
a(lp3720
I2008
aI2009
aI2010
aI2011
aI2012
aI2013
aI2014
aI2015
aI2016
atp3721
a(g1
(g2
(S'S17'
p3722
I0
I1
tp3723
Rp3724
(I3
S'|'
p3725
NNNI17
I1
I0
tp3726
bS'High income: OECD'
p3727
tp3728
Rp3729
g1
(g2
(S'S60'
p3730
I0
I1
tp3731
Rp3732
(I3
S'|'
p3733
NNNI60
I1
I0
tp3734
bS'Improved sanitation facilities (% of population with access)'
p3735
tp3736
Rp3737
(lp3738
g1
(g22
S'\x9a\x1f\x98\x1e!h\xa3B'
p3739
tp3740
Rp3741
ag1
(g22
S'3`nr\xc3\x94\xa6B'
p3742
tp3743
Rp3744
ag1
(g22
S'f\xc7{R\tp\xaaB'
p3745
tp3746
Rp3747
ag1
(g22
S'f\xc9\xe9\xc0\xcc\xce\xacB'
p3748
tp3749
Rp3750
ag1
(g22
S'f\x9aH\x11\x86\xdc\xa5B'
p3751
tp3752
Rp3753
ag1
(g22
S'3\x83\xa2I\xef\xa3\xa8B'
p3754
tp3755
Rp3756
ag1
(g22
S'3\x85\xfd*j\x98\xacB'
p3757
tp3758
Rp3759
ag1
(g22
S'fD\x8f\xbcr\x00\xacB'
p3760
tp3761
Rp3762
ag1
(g22
S'3\x04\x15\xe3oZ\xacB'
p3763
tp3764
Rp3765
a(lp3766
I2008
aI2009
aI2010
aI2011
aI2012
aI2013
aI2014
aI2015
aI2016
atp3767
a(g1
(g2
(S'S8'
p3768
I0
I1
tp3769
Rp3770
(I3
S'|'
p3771
NNNI8
I1
I0
tp3772
bS'Honduras'
p3773
tp3774
Rp3775
g1
(g2
(S'S60'
p3776
I0
I1
tp3777
Rp3778
(I3
S'|'
p3779
NNNI60
I1
I0
tp3780
bS'Improved sanitation facilities (% of population with access)'
p3781
tp3782
Rp3783
(lp3784
g1
(g22
S'\x1f\xf4N;ui\xf6A'
p3785
tp3786
Rp3787
ag1
(g22
S'E\r\x0cY\xf4\t\xfaA'
p3788
tp3789
Rp3790
ag1
(g22
S'\xbf\xd4\t\x08`f\xffA'
p3791
tp3792
Rp3793
ag1
(g22
S'\x03\t\x91\xf8\x80\xd7\x02B'
p3794
tp3795
Rp3796
ag1
(g22
S'2 \x03\x17\x9e\xfd\xfbA'
p3797
tp3798
Rp3799
ag1
(g22
S'\xec\x97\xe19@\xe0\xffA'
p3800
tp3801
Rp3802
ag1
(g22
S'\x8cJ\x8d\x9a\r/\x04B'
p3803
tp3804
Rp3805
ag1
(g22
S'.\x90K?C\x8c\x05B'
p3806
tp3807
Rp3808
ag1
(g22
S'\x8d\x172+\xa6J\x05B'
p3809
tp3810
Rp3811
a(lp3812
I2008
aI2009
aI2010
aI2011
aI2012
aI2013
aI2014
aI2015
aI2016
atp3813
a(g1
(g2
(S'S7'
p3814
I0
I1
tp3815
Rp3816
(I3
S'|'
p3817
NNNI7
I1
I0
tp3818
bS'Hungary'
p3819
tp3820
Rp3821
g1
(g2
(S'S60'
p3822
I0
I1
tp3823
Rp3824
(I3
S'|'
p3825
NNNI60
I1
I0
tp3826
bS'Improved sanitation facilities (% of population with access)'
p3827
tp3828
Rp3829
(lp3830
g1
(g22
S'\xc0\xabe\xb4\xfe;3B'
p3831
tp3832
Rp3833
ag1
(g22
S'\xcd\xec =[Q7B'
p3834
tp3835
Rp3836
ag1
(g22
S'\x17\xf9\x16\x13s\x19>B'
p3837
tp3838
Rp3839
ag1
(g22
S'\xb2-\x8f\xdf\xd8\xdfAB'
p3840
tp3841
Rp3842
ag1
(g22
S"\xe3\x85d_'S;B"
p3843
tp3844
Rp3845
ag1
(g22
S'\xee|\xe0\xc5\xab8=B'
p3846
tp3847
Rp3848
ag1
(g22
S'\xba\xe9\x02\xfcW\xcc?B'
p3849
tp3850
Rp3851
ag1
(g22
S'/\x9d\x8f\xff\xdd\xd4<B'
p3852
tp3853
Rp3854
ag1
(g22
S'\xf8\xf3\xe9\xe7\x92\n>B'
p3855
tp3856
Rp3857
a(lp3858
I2008
aI2009
aI2010
aI2011
aI2012
aI2013
aI2014
aI2015
aI2016
atp3859
a(g1
(g2
(S'S7'
p3860
I0
I1
tp3861
Rp3862
(I3
S'|'
p3863
NNNI7
I1
I0
tp3864
bS'Iceland'
p3865
tp3866
Rp3867
g1
(g2
(S'S60'
p3868
I0
I1
tp3869
Rp3870
(I3
S'|'
p3871
NNNI60
I1
I0
tp3872
bS'Improved sanitation facilities (% of population with access)'
p3873
tp3874
Rp3875
(lp3876
g1
(g22
S'\x0b\xde\xefP\xd8*\xf9A'
p3877
tp3878
Rp3879
ag1
(g22
S'^\xbau\xa2\x94{\x01B'
p3880
tp3881
Rp3882
ag1
(g22
S'c\x7fi\xcd\x05]\x05B'
p3883
tp3884
Rp3885
ag1
(g22
S'\x03\t\x15\x82O\xae\x03B'
p3886
tp3887
Rp3888
ag1
(g22
S'\xab\xa1\x99\xc6\xaa\xbe\xf3A'
p3889
tp3890
Rp3891
ag1
(g22
S'h.\x17:l\xab\xf3A'
p3892
tp3893
Rp3894
ag1
(g22
S'\xda\x83\x8f(\xcf\x13\xfaA'
p3895
tp3896
Rp3897
ag1
(g22
S'\xed\xc79\xf3(\x8d\xf9A'
p3898
tp3899
Rp3900
ag1
(g22
S'8\x1b\x11z\x85\x00\x00B'
p3901
tp3902
Rp3903
a(lp3904
I2008
aI2009
aI2010
aI2011
aI2012
aI2013
aI2014
aI2015
aI2016
atp3905
a(g1
(g2
(S'S5'
p3906
I0
I1
tp3907
Rp3908
(I3
S'|'
p3909
NNNI5
I1
I0
tp3910
bS'India'
p3911
tp3912
Rp3913
g1
(g2
(S'S60'
p3914
I0
I1
tp3915
Rp3916
(I3
S'|'
p3917
NNNI60
I1
I0
tp3918
bS'Improved sanitation facilities (% of population with access)'
p3919
tp3920
Rp3921
(lp3922
g1
(g22
S'\x8fRV\x86?\x9aFB'
p3923
tp3924
Rp3925
ag1
(g22
S'\x9a\xa9\xe5\xd4\x92\xe2KB'
p3926
tp3927
Rp3928
ag1
(g22
S'\xa6c\xe1,\xd2WQB'
p3929
tp3930
Rp3931
ag1
(g22
S'\x02{(/\xfaNWB'
p3932
tp3933
Rp3934
ag1
(g22
S"'\x91d\xffbXTB"
p3935
tp3936
Rp3937
ag1
(g22
S'\x9c\x9c\xed\x9bh\x0b[B'
p3938
tp3939
Rp3940
ag1
(g22
S'\xf6\xf4\x9d\xe6\xc4\xdb`B'
p3941
tp3942
Rp3943
ag1
(g22
S'\xd5\xd42G\xb3\xc5aB'
p3944
tp3945
Rp3946
ag1
(g22
S'N6\x1b\xaciBaB'
p3947
tp3948
Rp3949
a(lp3950
I2008
aI2009
aI2010
aI2011
aI2012
aI2013
aI2014
aI2015
aI2016
atp3951
a(g1
(g2
(S'S9'
p3952
I0
I1
tp3953
Rp3954
(I3
S'|'
p3955
NNNI9
I1
I0
tp3956
bS'Indonesia'
p3957
tp3958
Rp3959
g1
(g2
(S'S60'
p3960
I0
I1
tp3961
Rp3962
(I3
S'|'
p3963
NNNI60
I1
I0
tp3964
bS'Improved sanitation facilities (% of population with access)'
p3965
tp3966
Rp3967
(lp3968
g1
(g22
S'\xf6\x08\x08\xc5u\xc47B'
p3969
tp3970
Rp3971
ag1
(g22
S'\xfc\x8914x\xc78B'
p3972
tp3973
Rp3974
ag1
(g22
S'\x00\x00\xa0\x10yd<B'
p3975
tp3976
Rp3977
ag1
(g22
S';\xcfh&D6BB'
p3978
tp3979
Rp3980
ag1
(g22
S'\xb0\xf2{J\x84~<B'
p3981
tp3982
Rp3983
ag1
(g22
S'1\xa8\xa3!w\x90CB'
p3984
tp3985
Rp3986
ag1
(g22
S'\x0c\xe2\x8c\xfd\xfccIB'
p3987
tp3988
Rp3989
ag1
(g22
S'q\xfd_\xa411LB'
p3990
tp3991
Rp3992
ag1
(g22
S'y\xa9\x16\xc7\xd9\x0bLB'
p3993
tp3994
Rp3995
a(lp3996
I2008
aI2009
aI2010
aI2011
aI2012
aI2013
aI2014
aI2015
aI2016
atp3997
a(g1
(g2
(S'S4'
p3998
I0
I1
tp3999
Rp4000
(I3
S'|'
p4001
NNNI4
I1
I0
tp4002
bS'Iraq'
p4003
tp4004
Rp4005
g1
(g2
(S'S60'
p4006
I0
I1
tp4007
Rp4008
(I3
S'|'
p4009
NNNI60
I1
I0
tp4010
bS'Improved sanitation facilities (% of population with access)'
p4011
tp4012
Rp4013
(lp4014
g1
(g22
S"\x00\x00\x80\xa2z'\x1dB"
p4015
tp4016
Rp4017
ag1
(g22
S'\x00\x00\x808\xdc\xf5\x1aB'
p4018
tp4019
Rp4020
ag1
(g22
S'\x00\x00\x80b\xf7\xa8\x18B'
p4021
tp4022
Rp4023
ag1
(g22
S'\x00\x00\x80{{\xa4!B'
p4024
tp4025
Rp4026
ag1
(g22
S'\x00\x00\x80\xd6\xe0\x90$B'
p4027
tp4028
Rp4029
ag1
(g22
S'\x00\x00\x801\xaf3&B'
p4030
tp4031
Rp4032
ag1
(g22
S'\x00\x00\x00\x8f\xe1\xc1(B'
p4033
tp4034
Rp4035
ag1
(g22
S'\x00\x00\x80\xb5\x10\x05.B'
p4036
tp4037
Rp4038
a(lp4039
I2008
aI2009
aI2010
aI2011
aI2012
aI2013
aI2014
aI2015
atp4040
a(g1
(g2
(S'S7'
p4041
I0
I1
tp4042
Rp4043
(I3
S'|'
p4044
NNNI7
I1
I0
tp4045
bS'Ireland'
p4046
tp4047
Rp4048
g1
(g2
(S'S60'
p4049
I0
I1
tp4050
Rp4051
(I3
S'|'
p4052
NNNI60
I1
I0
tp4053
bS'Improved sanitation facilities (% of population with access)'
p4054
tp4055
Rp4056
(lp4057
g1
(g22
S'%\x06-\xba\xf7\x14JB'
p4058
tp4059
Rp4060
ag1
(g22
S'j\xfc\x82T\xaf\nOB'
p4061
tp4062
Rp4063
ag1
(g22
S'\x10\xe8\xfaIs\xa7SB'
p4064
tp4065
Rp4066
ag1
(g22
S'\x0e\x1d\xf6dn\xbaTB'
p4067
tp4068
Rp4069
ag1
(g22
S'\xd3M\xe0\x0fQgPB'
p4070
tp4071
Rp4072
ag1
(g22
S'\xfa\x9e\xec@[CPB'
p4073
tp4074
Rp4075
ag1
(g22
S'\xdd\x9c\x85\xcb>\xd8QB'
p4076
tp4077
Rp4078
ag1
(g22
S'y\xa1\x93\xba\x7f\xd4PB'
p4079
tp4080
Rp4081
ag1
(g22
S'\x7f\x02p\x95\xbd\xfaPB'
p4082
tp4083
Rp4084
a(lp4085
I2008
aI2009
aI2010
aI2011
aI2012
aI2013
aI2014
aI2015
aI2016
atp4086
a(g1
(g2
(S'S11'
p4087
I0
I1
tp4088
Rp4089
(I3
S'|'
p4090
NNNI11
I1
I0
tp4091
bS'Isle of Man'
p4092
tp4093
Rp4094
g1
(g2
(S'S60'
p4095
I0
I1
tp4096
Rp4097
(I3
S'|'
p4098
NNNI60
I1
I0
tp4099
bS'Improved sanitation facilities (% of population with access)'
p4100
tp4101
Rp4102
(lp4103
(lp4104
tp4105
a(g1
(g2
(S'S6'
p4106
I0
I1
tp4107
Rp4108
(I3
S'|'
p4109
NNNI6
I1
I0
tp4110
bS'Israel'
p4111
tp4112
Rp4113
g1
(g2
(S'S60'
p4114
I0
I1
tp4115
Rp4116
(I3
S'|'
p4117
NNNI60
I1
I0
tp4118
bS'Improved sanitation facilities (% of population with access)'
p4119
tp4120
Rp4121
(lp4122
g1
(g22
S'\x00\x00\x00i\xc3-.B'
p4123
tp4124
Rp4125
ag1
(g22
S'\x00\x00 {\xc5\xac0B'
p4126
tp4127
Rp4128
ag1
(g22
S'\x00\x00`\x01\xaa\xc23B'
p4129
tp4130
Rp4131
ag1
(g22
S'\x00\x00\xc0\xa4\xacF6B'
p4132
tp4133
Rp4134
ag1
(g22
S'\x00\x00\x00=\x0eN1B'
p4135
tp4136
Rp4137
ag1
(g22
S'\x00\x00 s\xe4\x964B'
p4138
tp4139
Rp4140
ag1
(g22
S'\x00\x00\x80c\xb1H8B'
p4141
tp4142
Rp4143
ag1
(g22
S'\x00\x00\xc0Zc\xe18B'
p4144
tp4145
Rp4146
ag1
(g22
S'\x00\x00\x80v5\xac8B'
p4147
tp4148
Rp4149
a(lp4150
I2008
aI2009
aI2010
aI2011
aI2012
aI2013
aI2014
aI2015
aI2016
atp4151
a(g1
(g2
(S'S5'
p4152
I0
I1
tp4153
Rp4154
(I3
S'|'
p4155
NNNI5
I1
I0
tp4156
bS'Italy'
p4157
tp4158
Rp4159
g1
(g2
(S'S60'
p4160
I0
I1
tp4161
Rp4162
(I3
S'|'
p4163
NNNI60
I1
I0
tp4164
bS'Improved sanitation facilities (% of population with access)'
p4165
tp4166
Rp4167
(lp4168
g1
(g22
S'L?\x1a;A\xad^B'
p4169
tp4170
Rp4171
ag1
(g22
S"\xec\x05u'\xe3\x9caB"
p4172
tp4173
Rp4174
ag1
(g22
S"\xe1\xb6\xf0\xbf'\xcedB"
p4175
tp4176
Rp4177
ag1
(g22
S'\\\x97X\xb6\xe1LgB'
p4178
tp4179
Rp4180
ag1
(g22
S'\xe5\xf8v\xe3\xabzaB'
p4181
tp4182
Rp4183
ag1
(g22
S"')\xd5\x9d\xe3LcB"
p4184
tp4185
Rp4186
ag1
(g22
S'\xd1^\x1a\x982\xd4eB'
p4187
tp4188
Rp4189
ag1
(g22
S'Rp\xaf\x8d\xd3\xf7bB'
p4190
tp4191
Rp4192
ag1
(g22
S'+O.\x00\xaf\xd3bB'
p4193
tp4194
Rp4195
a(lp4196
I2008
aI2009
aI2010
aI2011
aI2012
aI2013
aI2014
aI2015
aI2016
atp4197
a(g1
(g2
(S'S7'
p4198
I0
I1
tp4199
Rp4200
(I3
S'|'
p4201
NNNI7
I1
I0
tp4202
bS'Jamaica'
p4203
tp4204
Rp4205
g1
(g2
(S'S60'
p4206
I0
I1
tp4207
Rp4208
(I3
S'|'
p4209
NNNI60
I1
I0
tp4210
bS'Improved sanitation facilities (% of population with access)'
p4211
tp4212
Rp4213
(lp4214
g1
(g22
S'J5e;\xb7\xf8\xf9A'
p4215
tp4216
Rp4217
ag1
(g22
S'a`\xa1\xbf>%\xfeA'
p4218
tp4219
Rp4220
ag1
(g22
S'\xda\xa6\x9e[\x04\x02\x02B'
p4221
tp4222
Rp4223
ag1
(g22
S'\xd2\x80\xcc\xcc\xf4n\x04B'
p4224
tp4225
Rp4226
ag1
(g22
S'\xbe\xf6\xc5e\xe3\n\xfbA'
p4227
tp4228
Rp4229
ag1
(g22
S'0/\xf7\xaap\xca\xfaA'
p4230
tp4231
Rp4232
ag1
(g22
S'\\U\xc4\x1d|\xea\xffA'
p4233
tp4234
Rp4235
ag1
(g22
S'\xe0\xf3\xf9\xb4\x16G\xffA'
p4236
tp4237
Rp4238
ag1
(g22
S'\xf4\xfd\xd5\x16\x88|\xfeA'
p4239
tp4240
Rp4241
a(lp4242
I2008
aI2009
aI2010
aI2011
aI2012
aI2013
aI2014
aI2015
aI2016
atp4243
a(g1
(g2
(S'S5'
p4244
I0
I1
tp4245
Rp4246
(I3
S'|'
p4247
NNNI5
I1
I0
tp4248
bS'Japan'
p4249
tp4250
Rp4251
g1
(g2
(S'S60'
p4252
I0
I1
tp4253
Rp4254
(I3
S'|'
p4255
NNNI60
I1
I0
tp4256
bS'Improved sanitation facilities (% of population with access)'
p4257
tp4258
Rp4259
(lp4260
g1
(g22
S'\x12WO\xdf\xa8\xadbB'
p4261
tp4262
Rp4263
ag1
(g22
S'\xdd\x9cI\xfa\x16\xd2dB'
p4264
tp4265
Rp4266
ag1
(g22
S'\xfc\x85g\xc7[\xa7fB'
p4267
tp4268
Rp4269
ag1
(g22
S'\xb0\xbe\xb2H\xfc\x00kB'
p4270
tp4271
Rp4272
ag1
(g22
S'\x171\xbc<P\xfacB'
p4273
tp4274
Rp4275
ag1
(g22
S'\x00\xbc\xdbV\x96ghB'
p4276
tp4277
Rp4278
ag1
(g22
S'\xcd\xe4Ri\x80\xb5mB'
p4279
tp4280
Rp4281
ag1
(g22
S'\x9a)\t\x15\xf9\x1eoB'
p4282
tp4283
Rp4284
ag1
(g22
S'\xe1JLu\x8cYmB'
p4285
tp4286
Rp4287
a(lp4288
I2008
aI2009
aI2010
aI2011
aI2012
aI2013
aI2014
aI2015
aI2016
atp4289
a(g1
(g2
(S'S6'
p4290
I0
I1
tp4291
Rp4292
(I3
S'|'
p4293
NNNI6
I1
I0
tp4294
bS'Jordan'
p4295
tp4296
Rp4297
g1
(g2
(S'S60'
p4298
I0
I1
tp4299
Rp4300
(I3
S'|'
p4301
NNNI60
I1
I0
tp4302
bS'Improved sanitation facilities (% of population with access)'
p4303
tp4304
Rp4305
(lp4306
g1
(g22
S'\x1dZ\xb8\xda\xb8\xef\x06B'
p4307
tp4308
Rp4309
ag1
(g22
S'\xcaC~w\n\xb9\tB'
p4310
tp4311
Rp4312
ag1
(g22
S'\xfeC\xa8\x1a#\x96\x0eB'
p4313
tp4314
Rp4315
ag1
(g22
S'\x05E\xb4\xb0\x05\x81\x12B'
p4316
tp4317
Rp4318
ag1
(g22
S'g\xc4\xa0-*\xbf\x0fB'
p4319
tp4320
Rp4321
ag1
(g22
S'\xebbb\xe6\xce\x03\x12B'
p4322
tp4323
Rp4324
ag1
(g22
S'\x90\xf1kB\x04\xbf\x14B'
p4325
tp4326
Rp4327
ag1
(g22
S'\xd5\xc9\xf8\xcc\xc1f\x16B'
p4328
tp4329
Rp4330
ag1
(g22
S'd\x8c\x13\xa8u]\x17B'
p4331
tp4332
Rp4333
a(lp4334
I2008
aI2009
aI2010
aI2011
aI2012
aI2013
aI2014
aI2015
aI2016
atp4335
a(g1
(g2
(S'S10'
p4336
I0
I1
tp4337
Rp4338
(I3
S'|'
p4339
NNNI10
I1
I0
tp4340
bS'Kazakhstan'
p4341
tp4342
Rp4343
g1
(g2
(S'S60'
p4344
I0
I1
tp4345
Rp4346
(I3
S'|'
p4347
NNNI60
I1
I0
tp4348
bS'Improved sanitation facilities (% of population with access)'
p4349
tp4350
Rp4351
(lp4352
g1
(g22
S'\xb7"\xc0\x90I\xcf\x1dB'
p4353
tp4354
Rp4355
ag1
(g22
S'\xf5\n\xb2F\x11~$B'
p4356
tp4357
Rp4358
ag1
(g22
S'v\xaf>\xa3C\xc1,B'
p4359
tp4360
Rp4361
ag1
(g22
S'\xdbj\xfd\xc4v\xec0B'
p4362
tp4363
Rp4364
ag1
(g22
S'\xee\x8b\xc8\xc0rl)B'
p4365
tp4366
Rp4367
ag1
(g22
S'\xd0\xb5\xee\xad\xfb\xe3.B'
p4368
tp4369
Rp4370
ag1
(g22
S'b! \xaa\xee\xed2B'
p4371
tp4372
Rp4373
ag1
(g22
S'\x94g\x88\xe6\x10]5B'
p4374
tp4375
Rp4376
ag1
(g22
S'm\xe6\xe0\xb2C\xd84B'
p4377
tp4378
Rp4379
a(lp4380
I2008
aI2009
aI2010
aI2011
aI2012
aI2013
aI2014
aI2015
aI2016
atp4381
a(g1
(g2
(S'S5'
p4382
I0
I1
tp4383
Rp4384
(I3
S'|'
p4385
NNNI5
I1
I0
tp4386
bS'Kenya'
p4387
tp4388
Rp4389
g1
(g2
(S'S60'
p4390
I0
I1
tp4391
Rp4392
(I3
S'|'
p4393
NNNI60
I1
I0
tp4394
bS'Improved sanitation facilities (% of population with access)'
p4395
tp4396
Rp4397
(lp4398
g1
(g22
S'\x940\x0e\xe6\xeb\xc7\xf9A'
p4399
tp4400
Rp4401
ag1
(g22
S"\x8c\x84\xe2\x0f'\x12\xffA"
p4402
tp4403
Rp4404
ag1
(g22
S'\xff\xa1\x11!\xdeM\x03B'
p4405
tp4406
Rp4407
ag1
(g22
S'\xf0\x05C5E\xce\x07B'
p4408
tp4409
Rp4410
ag1
(g22
S'\xa24\xecENr\x05B'
p4411
tp4412
Rp4413
ag1
(g22
S'\xf9\xa0\xf1\xb0h\xbf\tB'
p4414
tp4415
Rp4416
ag1
(g22
S'\xec/ \xfcM\xfa\x0eB'
p4417
tp4418
Rp4419
ag1
(g22
S'\x88\x05\x8c&\xf2\x03\x11B'
p4420
tp4421
Rp4422
a(lp4423
I2008
aI2009
aI2010
aI2011
aI2012
aI2013
aI2014
aI2015
atp4424
a(g1
(g2
(S'S8'
p4425
I0
I1
tp4426
Rp4427
(I3
S'|'
p4428
NNNI8
I1
I0
tp4429
bS'Kiribati'
p4430
tp4431
Rp4432
g1
(g2
(S'S60'
p4433
I0
I1
tp4434
Rp4435
(I3
S'|'
p4436
NNNI60
I1
I0
tp4437
bS'Improved sanitation facilities (% of population with access)'
p4438
tp4439
Rp4440
(lp4441
g1
(g22
S'\xd6\xfc=a\x10\xce\x97A'
p4442
tp4443
Rp4444
ag1
(g22
S'IcDL\xb2a\x9cA'
p4445
tp4446
Rp4447
ag1
(g22
S'\xc9\xadI\x8b\xbe\x19\x9fA'
p4448
tp4449
Rp4450
ag1
(g22
S'C\x92\xb9\x92\xe3\xac\x9cA'
p4451
tp4452
Rp4453
ag1
(g22
S'\x1a\xf8\xf1\xb0\xe8\xd8\x9cA'
p4454
tp4455
Rp4456
ag1
(g22
S'\x0b\xcf\xdb\xb4\x15}\xa2A'
p4457
tp4458
Rp4459
ag1
(g22
S'\xb4\x94$HHG\xa5A'
p4460
tp4461
Rp4462
a(lp4463
I2009
aI2010
aI2011
aI2012
aI2013
aI2014
aI2015
atp4464
a(g1
(g2
(S'S6'
p4465
I0
I1
tp4466
Rp4467
(I3
S'|'
p4468
NNNI6
I1
I0
tp4469
bS'Kosovo'
p4470
tp4471
Rp4472
g1
(g2
(S'S60'
p4473
I0
I1
tp4474
Rp4475
(I3
S'|'
p4476
NNNI60
I1
I0
tp4477
bS'Improved sanitation facilities (% of population with access)'
p4478
tp4479
Rp4480
(lp4481
g1
(g22
S'i\xc6\x90\xe7\xac\xdf\xdaA'
p4482
tp4483
Rp4484
ag1
(g22
S'*\x91\x98\x10\xed\x99\xddA'
p4485
tp4486
Rp4487
ag1
(g22
S'\x01j\xdc_\x81\xd5\xe2A'
p4488
tp4489
Rp4490
ag1
(g22
S'W\x04\xd3\xd6"\x02\xe8A'
p4491
tp4492
Rp4493
ag1
(g22
S'\xce\xc2\xf4\x10^\x1a\xe7A'
p4494
tp4495
Rp4496
ag1
(g22
S'#\x10\xed\xd0\xe4)\xe9A'
p4497
tp4498
Rp4499
ag1
(g22
S'\xc6\xa2\x92\x1fv\xf0\xedA'
p4500
tp4501
Rp4502
ag1
(g22
S'L\xa6\xc34\xc7\t\xeaA'
p4503
tp4504
Rp4505
ag1
(g22
S'V\xf1\x93\xceE\xcb\xeaA'
p4506
tp4507
Rp4508
a(lp4509
I2008
aI2009
aI2010
aI2011
aI2012
aI2013
aI2014
aI2015
aI2016
atp4510
a(g1
(g2
(S'S6'
p4511
I0
I1
tp4512
Rp4513
(I3
S'|'
p4514
NNNI6
I1
I0
tp4515
bS'Kuwait'
p4516
tp4517
Rp4518
g1
(g2
(S'S60'
p4519
I0
I1
tp4520
Rp4521
(I3
S'|'
p4522
NNNI60
I1
I0
tp4523
bS'Improved sanitation facilities (% of population with access)'
p4524
tp4525
Rp4526
(lp4527
g1
(g22
S'\t[\xb6N8\xeb\x16B'
p4528
tp4529
Rp4530
ag1
(g22
S'\x12\x14)\x83\xb6u\x1aB'
p4531
tp4532
Rp4533
ag1
(g22
S'\x91\x0f\x8e\xef!W!B'
p4534
tp4535
Rp4536
ag1
(g22
S"'\xc2\x8dY\x1f\x87#B"
p4537
tp4538
Rp4539
ag1
(g22
S'7Z:\x8e\xff&\x1fB'
p4540
tp4541
Rp4542
ag1
(g22
S'\x18\xa65\xe6p\r!B'
p4543
tp4544
Rp4545
ag1
(g22
S'\x8d\xf7\xd8)\xec\t$B'
p4546
tp4547
Rp4548
ag1
(g22
S'\x8a\xee\x1d\\/\xb8%B'
p4549
tp4550
Rp4551
ag1
(g22
S'>H\xacT\xd8\xdc&B'
p4552
tp4553
Rp4554
a(lp4555
I2008
aI2009
aI2010
aI2011
aI2012
aI2013
aI2014
aI2015
aI2016
atp4556
a(g1
(g2
(S'S15'
p4557
I0
I1
tp4558
Rp4559
(I3
S'|'
p4560
NNNI15
I1
I0
tp4561
bS'Kyrgyz Republic'
p4562
tp4563
Rp4564
g1
(g2
(S'S60'
p4565
I0
I1
tp4566
Rp4567
(I3
S'|'
p4568
NNNI60
I1
I0
tp4569
bS'Improved sanitation facilities (% of population with access)'
p4570
tp4571
Rp4572
(lp4573
g1
(g22
S'3\x8a\xf5\xc6\x16\\\xd6A'
p4574
tp4575
Rp4576
ag1
(g22
S" ^'\x16\xf7r\xe1A"
p4577
tp4578
Rp4579
ag1
(g22
S'7O\xc0\x12\xe8\xab\xe8A'
p4580
tp4581
Rp4582
ag1
(g22
S'q8\xba\xa6?L\xf2A'
p4583
tp4584
Rp4585
ag1
(g22
S'\xe9+\x1b\xd2\x8f\t\xecA'
p4586
tp4587
Rp4588
ag1
(g22
S']P\xe2\xc5n\xac\xeeA'
p4589
tp4590
Rp4591
ag1
(g22
S'\x0c\x9f\x07\xce\x92\xd3\xf4A'
p4592
tp4593
Rp4594
ag1
(g22
S'\xbe\xb0\x0e"j\xe9\xf8A'
p4595
tp4596
Rp4597
ag1
(g22
S'\xc9H3c\xa8F\xfaA'
p4598
tp4599
Rp4600
a(lp4601
I2008
aI2009
aI2010
aI2011
aI2012
aI2013
aI2014
aI2015
aI2016
atp4602
a(g1
(g2
(S'S7'
p4603
I0
I1
tp4604
Rp4605
(I3
S'|'
p4606
NNNI7
I1
I0
tp4607
bS'Lao PDR'
p4608
tp4609
Rp4610
g1
(g2
(S'S60'
p4611
I0
I1
tp4612
Rp4613
(I3
S'|'
p4614
NNNI60
I1
I0
tp4615
bS'Improved sanitation facilities (% of population with access)'
p4616
tp4617
Rp4618
(lp4619
g1
(g22
S'Q\xda\xd3\xed~\xe6\xcdA'
p4620
tp4621
Rp4622
ag1
(g22
S'e\xaa\xee"\xb8z\xd1A'
p4623
tp4624
Rp4625
ag1
(g22
S'@0\xc9V\xee\xea\xd1A'
p4626
tp4627
Rp4628
ag1
(g22
S'\x14\xed\x12d\xbf\xac\xd7A'
p4629
tp4630
Rp4631
ag1
(g22
S'o\xf0\xd1\x92\x8b\x1d\xd9A'
p4632
tp4633
Rp4634
ag1
(g22
S'\x01j\xb4d_N\xe2A'
p4635
tp4636
Rp4637
ag1
(g22
S'\x9dc?\xf6,w\xe5A'
p4638
tp4639
Rp4640
ag1
(g22
S'\x13D\x81\x86\x8b\xaf\xeaA'
p4641
tp4642
Rp4643
ag1
(g22
S'\x83\xfa\xedEE\xcd\xebA'
p4644
tp4645
Rp4646
a(lp4647
I2008
aI2009
aI2010
aI2011
aI2012
aI2013
aI2014
aI2015
aI2016
atp4648
a(g1
(g2
(S'S45'
p4649
I0
I1
tp4650
Rp4651
(I3
S'|'
p4652
NNNI45
I1
I0
tp4653
bS'Latin America & Caribbean (all income levels)'
p4654
tp4655
Rp4656
g1
(g2
(S'S60'
p4657
I0
I1
tp4658
Rp4659
(I3
S'|'
p4660
NNNI60
I1
I0
tp4661
bS'Improved sanitation facilities (% of population with access)'
p4662
tp4663
Rp4664
(lp4665
g1
(g22
S'V\xde\x7f\xe6\xab\xb0fB'
p4666
tp4667
Rp4668
ag1
(g22
S'\x0c\x12\xec\x10\xdd\xf7jB'
p4669
tp4670
Rp4671
ag1
(g22
S'\x1f\xd5j$L\x11pB'
p4672
tp4673
Rp4674
ag1
(g22
S'\x14V\xf1Z\xd7\x0csB'
p4675
tp4676
Rp4677
ag1
(g22
S'\xe1\x1a\xb8\x037\x13nB'
p4678
tp4679
Rp4680
ag1
(g22
S'3g\xd9\xc8)\xebrB'
p4681
tp4682
Rp4683
ag1
(g22
S'\xc3M4\x9a\xee1wB'
p4684
tp4685
Rp4686
ag1
(g22
S'\xe1z\x85\xd5\x9e\xfawB'
p4687
tp4688
Rp4689
ag1
(g22
S'\xa4t\x81\xea\xfb\xebxB'
p4690
tp4691
Rp4692
a(lp4693
I2008
aI2009
aI2010
aI2011
aI2012
aI2013
aI2014
aI2015
aI2016
atp4694
a(g1
(g2
(S'S43'
p4695
I0
I1
tp4696
Rp4697
(I3
S'|'
p4698
NNNI43
I1
I0
tp4699
bS'Latin America & Caribbean (developing only)'
p4700
tp4701
Rp4702
g1
(g2
(S'S60'
p4703
I0
I1
tp4704
Rp4705
(I3
S'|'
p4706
NNNI60
I1
I0
tp4707
bS'Improved sanitation facilities (% of population with access)'
p4708
tp4709
Rp4710
(lp4711
g1
(g22
S'\xdb\r\xb3\nR\x14`B'
p4712
tp4713
Rp4714
ag1
(g22
S"'\xa9J}\x98\xe3bB"
p4715
tp4716
Rp4717
ag1
(g22
S"\x06A\xa4('FfB"
p4718
tp4719
Rp4720
ag1
(g22
S'B(\x9a\x90\xb3\x8cjB'
p4721
tp4722
Rp4723
ag1
(g22
S'\x8b\x9c\xe2I\xef\x15eB'
p4724
tp4725
Rp4726
ag1
(g22
S'\x04\xe6Q\xbd:\xeajB'
p4727
tp4728
Rp4729
ag1
(g22
S'\xcd\x14\xc6\xf3\xfeVpB'
p4730
tp4731
Rp4732
ag1
(g22
S'\xe1&\x96{\x10\xddpB'
p4733
tp4734
Rp4735
ag1
(g22
S'\xa40\xff\xffM\xb4qB'
p4736
tp4737
Rp4738
a(lp4739
I2008
aI2009
aI2010
aI2011
aI2012
aI2013
aI2014
aI2015
aI2016
atp4740
a(g1
(g2
(S'S6'
p4741
I0
I1
tp4742
Rp4743
(I3
S'|'
p4744
NNNI6
I1
I0
tp4745
bS'Latvia'
p4746
tp4747
Rp4748
g1
(g2
(S'S60'
p4749
I0
I1
tp4750
Rp4751
(I3
S'|'
p4752
NNNI60
I1
I0
tp4753
bS'Improved sanitation facilities (% of population with access)'
p4754
tp4755
Rp4756
(lp4757
g1
(g22
S'\x00\x00\x00\x8dW\x80\x03B'
p4758
tp4759
Rp4760
ag1
(g22
S'\x00\x00\x00\x84f\xf0\nB'
p4761
tp4762
Rp4763
ag1
(g22
S'\x00\x00\x80\x9at\x86\x12B'
p4764
tp4765
Rp4766
ag1
(g22
S'\x00\x00\x80\xeeyh\x13B'
p4767
tp4768
Rp4769
ag1
(g22
S'\x00\x00\x00\x18\xf8X\x04B'
p4770
tp4771
Rp4772
ag1
(g22
S'\x00\x00\x00\xbe[\x95\tB'
p4773
tp4774
Rp4775
ag1
(g22
S'\x00\x00\x80\xabh\x91\x11B'
p4776
tp4777
Rp4778
ag1
(g22
S'\x00\x00\x80\xfd\xa9p\x12B'
p4779
tp4780
Rp4781
ag1
(g22
S'7\x89V\xf8\xfb\x88\x13B'
p4782
tp4783
Rp4784
a(lp4785
I2008
aI2009
aI2010
aI2011
aI2012
aI2013
aI2014
aI2015
aI2016
atp4786
a(g1
(g2
(S'S44'
p4787
I0
I1
tp4788
Rp4789
(I3
S'|'
p4790
NNNI44
I1
I0
tp4791
bS'Least developed countries: UN classification'
p4792
tp4793
Rp4794
g1
(g2
(S'S60'
p4795
I0
I1
tp4796
Rp4797
(I3
S'|'
p4798
NNNI60
I1
I0
tp4799
bS'Improved sanitation facilities (% of population with access)'
p4800
tp4801
Rp4802
(lp4803
g1
(g22
S'\xb2\x1dio\xcfs<B'
p4804
tp4805
Rp4806
ag1
(g22
S'\xa4\x90\x8b#\xdc\xe4@B'
p4807
tp4808
Rp4809
ag1
(g22
S'\x02\x1bG\x97\xfbLEB'
p4810
tp4811
Rp4812
ag1
(g22
S'\xe3u!a\x188LB'
p4813
tp4814
Rp4815
ag1
(g22
S'\xec\xd1y\xedtiIB'
p4816
tp4817
Rp4818
ag1
(g22
S'B@}\x87\xd7\xeeLB'
p4819
tp4820
Rp4821
ag1
(g22
S')\x84\xed\x10\xb1NQB'
p4822
tp4823
Rp4824
ag1
(g22
S'\x12\xc3\xa7\xeb\x03eRB'
p4825
tp4826
Rp4827
ag1
(g22
S'\x91u\ry\xbc\xe2SB'
p4828
tp4829
Rp4830
a(lp4831
I2008
aI2009
aI2010
aI2011
aI2012
aI2013
aI2014
aI2015
aI2016
atp4832
a(g1
(g2
(S'S7'
p4833
I0
I1
tp4834
Rp4835
(I3
S'|'
p4836
NNNI7
I1
I0
tp4837
bS'Lebanon'
p4838
tp4839
Rp4840
g1
(g2
(S'S60'
p4841
I0
I1
tp4842
Rp4843
(I3
S'|'
p4844
NNNI60
I1
I0
tp4845
bS'Improved sanitation facilities (% of population with access)'
p4846
tp4847
Rp4848
(lp4849
g1
(g22
S',%\x01\x11\xb7z\x11B'
p4850
tp4851
Rp4852
ag1
(g22
S'{TJ\x9f"\xa3\x12B'
p4853
tp4854
Rp4855
ag1
(g22
S'\x9e\x1e\x93\xbf\xdf.\x16B'
p4856
tp4857
Rp4858
ag1
(g22
S'\xfa\xad"\xbe\xa9 \x1dB'
p4859
tp4860
Rp4861
ag1
(g22
S'\x1b/\x13\xcd$\x87\x1dB'
p4862
tp4863
Rp4864
ag1
(g22
S'\xfb\x1c\x16\xbb\xff\xf7\x1dB'
p4865
tp4866
Rp4867
ag1
(g22
S'\x07\x9f:\xa7.\xbb\x1fB'
p4868
tp4869
Rp4870
ag1
(g22
S'\x116\xbf/\x0f^\x1fB'
p4871
tp4872
Rp4873
ag1
(g22
S'\xdfO5K\x96\xe4\x1fB'
p4874
tp4875
Rp4876
a(lp4877
I2008
aI2009
aI2010
aI2011
aI2012
aI2013
aI2014
aI2015
aI2016
atp4878
a(g1
(g2
(S'S7'
p4879
I0
I1
tp4880
Rp4881
(I3
S'|'
p4882
NNNI7
I1
I0
tp4883
bS'Lesotho'
p4884
tp4885
Rp4886
g1
(g2
(S'S60'
p4887
I0
I1
tp4888
Rp4889
(I3
S'|'
p4890
NNNI60
I1
I0
tp4891
bS'Improved sanitation facilities (% of population with access)'
p4892
tp4893
Rp4894
(lp4895
g1
(g22
S'@\xc1\xdf\xe8\xa20\xdcA'
p4896
tp4897
Rp4898
ag1
(g22
S'o/\xcf\xf2z\xd5\xddA'
p4899
tp4900
Rp4901
ag1
(g22
S'Q\xa5\xf6\x8e\xd2\xc6\xe0A'
p4902
tp4903
Rp4904
ag1
(g22
S'R\n\xb0\x02uR\xdeA'
p4905
tp4906
Rp4907
ag1
(g22
S'\x1b\xbb\x0e\xe8\xab\xdd\xdfA'
p4908
tp4909
Rp4910
ag1
(g22
S'\x0bF\xef\xa9\x93k\xe4A'
p4911
tp4912
Rp4913
ag1
(g22
S'>\xe8M\xa5\x11\x8f\xe6A'
p4914
tp4915
Rp4916
ag1
(g22
S'zp1z}\x1d\xe5A'
p4917
tp4918
Rp4919
ag1
(g22
S'\x04!\x95\xa9e\x88\xe1A'
p4920
tp4921
Rp4922
a(lp4923
I2008
aI2009
aI2010
aI2011
aI2012
aI2013
aI2014
aI2015
aI2016
atp4924
a(g1
(g2
(S'S7'
p4925
I0
I1
tp4926
Rp4927
(I3
S'|'
p4928
NNNI7
I1
I0
tp4929
bS'Liberia'
p4930
tp4931
Rp4932
g1
(g2
(S'S60'
p4933
I0
I1
tp4934
Rp4935
(I3
S'|'
p4936
NNNI60
I1
I0
tp4937
bS'Improved sanitation facilities (% of population with access)'
p4938
tp4939
Rp4940
(lp4941
g1
(g22
S'\xd5&R;\x98\xa2\xd3A'
p4942
tp4943
Rp4944
ag1
(g22
S'\xcf\xf7Ko\xbf\x0c\xdcA'
p4945
tp4946
Rp4947
ag1
(g22
S"\xb6g\xe4Y'\xac\xdcA"
p4948
tp4949
Rp4950
ag1
(g22
S'<1-&=7\xe1A'
p4951
tp4952
Rp4953
ag1
(g22
S'\x16\x18\xea\xf1]\x91\xdbA'
p4954
tp4955
Rp4956
ag1
(g22
S'\x92\xe8UA3\xe4\xdaA'
p4957
tp4958
Rp4959
ag1
(g22
S'T\x00y\x81o\xc6\xe8A'
p4960
tp4961
Rp4962
ag1
(g22
S'\xcc\x7f\xd4\x0b\x95C\xe1A'
p4963
tp4964
Rp4965
ag1
(g22
S'\xa9\xd9\xabt<\x99\xe1A'
p4966
tp4967
Rp4968
a(lp4969
I2008
aI2009
aI2010
aI2011
aI2012
aI2013
aI2014
aI2015
aI2016
atp4970
a(g1
(g2
(S'S5'
p4971
I0
I1
tp4972
Rp4973
(I3
S'|'
p4974
NNNI5
I1
I0
tp4975
bS'Libya'
p4976
tp4977
Rp4978
g1
(g2
(S'S60'
p4979
I0
I1
tp4980
Rp4981
(I3
S'|'
p4982
NNNI60
I1
I0
tp4983
bS'Improved sanitation facilities (% of population with access)'
p4984
tp4985
Rp4986
(lp4987
g1
(g22
S'\x00\x00\x00\xc25"\rB'
p4988
tp4989
Rp4990
ag1
(g22
S'\x00\x00\x00n\x92H\x11B'
p4991
tp4992
Rp4993
ag1
(g22
S'\x00\x00\x80\xf5\x05B\x15B'
p4994
tp4995
Rp4996
ag1
(g22
S'\x00\x00\x00\xec\xa9\xd5\x1bB'
p4997
tp4998
Rp4999
ag1
(g22
S'\x00\x00\x80\x03\xd0\xf5\x1aB'
p5000
tp5001
Rp5002
ag1
(g22
S'\x00\x00\x00\xc4\x03\xc4\x1eB'
p5003
tp5004
Rp5005
ag1
(g22
S'\x00\x00\x00\xdcq.\x0fB'
p5006
tp5007
Rp5008
ag1
(g22
S'\x00\x00@\xa7\xfa/!B'
p5009
tp5010
Rp5011
ag1
(g22
S'\x00\x00\x80L\xa3\x1b%B'
p5012
tp5013
Rp5014
a(lp5015
I2008
aI2009
aI2010
aI2011
aI2012
aI2013
aI2014
aI2015
aI2016
atp5016
a(g1
(g2
(S'S13'
p5017
I0
I1
tp5018
Rp5019
(I3
S'|'
p5020
NNNI13
I1
I0
tp5021
bS'Liechtenstein'
p5022
tp5023
Rp5024
g1
(g2
(S'S60'
p5025
I0
I1
tp5026
Rp5027
(I3
S'|'
p5028
NNNI60
I1
I0
tp5029
bS'Improved sanitation facilities (% of population with access)'
p5030
tp5031
Rp5032
(lp5033
(lp5034
tp5035
a(g1
(g2
(S'S9'
p5036
I0
I1
tp5037
Rp5038
(I3
S'|'
p5039
NNNI9
I1
I0
tp5040
bS'Lithuania'
p5041
tp5042
Rp5043
g1
(g2
(S'S60'
p5044
I0
I1
tp5045
Rp5046
(I3
S'|'
p5047
NNNI60
I1
I0
tp5048
bS'Improved sanitation facilities (% of population with access)'
p5049
tp5050
Rp5051
(lp5052
g1
(g22
S'\x18\x95\xf5!\xb8l\x0fB'
p5053
tp5054
Rp5055
ag1
(g22
S'P<u&\xb1\xd2\x13B'
p5056
tp5057
Rp5058
ag1
(g22
S'~\x8ce\x13\x11\xbc\x19B'
p5059
tp5060
Rp5061
ag1
(g22
S'\xbbgm\xaa\xb3%!B'
p5062
tp5063
Rp5064
ag1
(g22
S'R\xf8O\xa9\x11W\x13B'
p5065
tp5066
Rp5067
ag1
(g22
S'\x9c\x84t\x82<O\x19B'
p5068
tp5069
Rp5070
ag1
(g22
S'\xf6\xc8lf+\x9d B'
p5071
tp5072
Rp5073
ag1
(g22
S'\xe7\xbb\xdb\xc2\xacp!B'
p5074
tp5075
Rp5076
ag1
(g22
S',E\x1e\xceF\x1c#B'
p5077
tp5078
Rp5079
a(lp5080
I2008
aI2009
aI2010
aI2011
aI2012
aI2013
aI2014
aI2015
aI2016
atp5081
a(g1
(g2
(S'S19'
p5082
I0
I1
tp5083
Rp5084
(I3
S'|'
p5085
NNNI19
I1
I0
tp5086
bS'Low & middle income'
p5087
tp5088
Rp5089
g1
(g2
(S'S60'
p5090
I0
I1
tp5091
Rp5092
(I3
S'|'
p5093
NNNI60
I1
I0
tp5094
bS'Improved sanitation facilities (% of population with access)'
p5095
tp5096
Rp5097
(lp5098
g1
(g22
S'3\xd9D\xa4\xac\xcb\x84B'
p5099
tp5100
Rp5101
ag1
(g22
S'{\x16l\xabt^\x88B'
p5102
tp5103
Rp5104
ag1
(g22
S'\xc3\xaf9\x06\xae\xc7\x8dB'
p5105
tp5106
Rp5107
ag1
(g22
S'\x8f\xad\xbb \x04C\x92B'
p5108
tp5109
Rp5110
ag1
(g22
S'fB\xafr\x1d\xa7\x8eB'
p5111
tp5112
Rp5113
ag1
(g22
S'H\x81\xa3\xa8\xca\xa1\x93B'
p5114
tp5115
Rp5116
ag1
(g22
S'\x8f\x0b\x06\x8f\x01\x1c\x98B'
p5117
tp5118
Rp5119
ag1
(g22
S'\xd77}\x8b_k\x99B'
p5120
tp5121
Rp5122
ag1
(g22
S'\xb8\xeb\xb0\xee9\xc3\x9aB'
p5123
tp5124
Rp5125
a(lp5126
I2008
aI2009
aI2010
aI2011
aI2012
aI2013
aI2014
aI2015
aI2016
atp5127
a(g1
(g2
(S'S10'
p5128
I0
I1
tp5129
Rp5130
(I3
S'|'
p5131
NNNI10
I1
I0
tp5132
bS'Low income'
p5133
tp5134
Rp5135
g1
(g2
(S'S60'
p5136
I0
I1
tp5137
Rp5138
(I3
S'|'
p5139
NNNI60
I1
I0
tp5140
bS'Improved sanitation facilities (% of population with access)'
p5141
tp5142
Rp5143
(lp5144
g1
(g22
S'\xc1(Z\xd1\xd8\xcb*B'
p5145
tp5146
Rp5147
ag1
(g22
S'h\xc2\x97v\xceu.B'
p5148
tp5149
Rp5150
ag1
(g22
S'\xdf\x9f\xf5\xc3$\xea2B'
p5151
tp5152
Rp5153
ag1
(g22
S'\xfc\xa9\x0fQ\xb0D8B'
p5154
tp5155
Rp5156
ag1
(g22
S'2E\xc5\xcd)\xe86B'
p5157
tp5158
Rp5159
ag1
(g22
S'N\xa2\x11R+\xaf;B'
p5160
tp5161
Rp5162
ag1
(g22
S'Z\xc4\xf8\x17s\xdf@B'
p5163
tp5164
Rp5165
ag1
(g22
S'o\x12\xf2\xd5\xf8\xadBB'
p5166
tp5167
Rp5168
ag1
(g22
S'\xf8\xa3\xf3\xeb\tODB'
p5169
tp5170
Rp5171
a(lp5172
I2008
aI2009
aI2010
aI2011
aI2012
aI2013
aI2014
aI2015
aI2016
atp5173
a(g1
(g2
(S'S19'
p5174
I0
I1
tp5175
Rp5176
(I3
S'|'
p5177
NNNI19
I1
I0
tp5178
bS'Lower middle income'
p5179
tp5180
Rp5181
g1
(g2
(S'S60'
p5182
I0
I1
tp5183
Rp5184
(I3
S'|'
p5185
NNNI60
I1
I0
tp5186
bS'Improved sanitation facilities (% of population with access)'
p5187
tp5188
Rp5189
(lp5190
g1
(g22
S'\xa6\xaf\x8eF\xa0\xf2dB'
p5191
tp5192
Rp5193
ag1
(g22
S'\x89\xed\x94\xb9$\xbfhB'
p5194
tp5195
Rp5196
ag1
(g22
S'H\xf1^G\xe9\xa8nB'
p5197
tp5198
Rp5199
ag1
(g22
S'3\x9f\xe4\xee}\xbbsB'
p5200
tp5201
Rp5202
ag1
(g22
S'\xa4\x0c\x10\x97-,pB'
p5203
tp5204
Rp5205
ag1
(g22
S'\xae\x0fR\x93jjtB'
p5206
tp5207
Rp5208
ag1
(g22
S'\xae\xab\xd9\xbc4,yB'
p5209
tp5210
Rp5211
ag1
(g22
S'H)c\x03\x8f\xaezB'
p5212
tp5213
Rp5214
ag1
(g22
S'\xaes}\xa8\xeb\xdazB'
p5215
tp5216
Rp5217
a(lp5218
I2008
aI2009
aI2010
aI2011
aI2012
aI2013
aI2014
aI2015
aI2016
atp5219
a(g1
(g2
(S'S10'
p5220
I0
I1
tp5221
Rp5222
(I3
S'|'
p5223
NNNI10
I1
I0
tp5224
bS'Luxembourg'
p5225
tp5226
Rp5227
g1
(g2
(S'S60'
p5228
I0
I1
tp5229
Rp5230
(I3
S'|'
p5231
NNNI60
I1
I0
tp5232
bS'Improved sanitation facilities (% of population with access)'
p5233
tp5234
Rp5235
(lp5236
g1
(g22
S"\xfe4\xfb\xbe'8AB"
p5237
tp5238
Rp5239
ag1
(g22
S'\xcb\xd1\xb2\x16l FB'
p5240
tp5241
Rp5242
ag1
(g22
S'1\xd8|\xa5\x03ELB'
p5243
tp5244
Rp5245
ag1
(g22
S'\x96\xa36\xb6g\xb5PB'
p5246
tp5247
Rp5248
ag1
(g22
S'\xaaa\xff\xed\x8e\xf1GB'
p5249
tp5250
Rp5251
ag1
(g22
S'H\xc1Z\xacteIB'
p5252
tp5253
Rp5254
ag1
(g22
S';\xdf\xd05\x99)QB'
p5255
tp5256
Rp5257
ag1
(g22
S'\x17a8\x03\x19\xa3RB'
p5258
tp5259
Rp5260
ag1
(g22
S'1\xa8sX\x12\xf6UB'
p5261
tp5262
Rp5263
a(lp5264
I2008
aI2009
aI2010
aI2011
aI2012
aI2013
aI2014
aI2015
aI2016
atp5265
a(g1
(g2
(S'S10'
p5266
I0
I1
tp5267
Rp5268
(I3
S'|'
p5269
NNNI10
I1
I0
tp5270
bS'Madagascar'
p5271
tp5272
Rp5273
g1
(g2
(S'S60'
p5274
I0
I1
tp5275
Rp5276
(I3
S'|'
p5277
NNNI60
I1
I0
tp5278
bS'Improved sanitation facilities (% of population with access)'
p5279
tp5280
Rp5281
(lp5282
g1
(g22
S'\xe5\xd5\xf8\xfa\xf7\xc5\xe0A'
p5283
tp5284
Rp5285
ag1
(g22
S'\xcd;\xcb=\xd0\x9e\xe2A'
p5286
tp5287
Rp5288
ag1
(g22
S'\xcb\x84\x89\x86\xbcr\xeaA'
p5289
tp5290
Rp5291
ag1
(g22
S'p\xf7npyc\xf2A'
p5292
tp5293
Rp5294
ag1
(g22
S'\xea!l\xfd\x16K\xeeA'
p5295
tp5296
Rp5297
ag1
(g22
S'ZG.\xab\xd2\xf0\xeaA'
p5298
tp5299
Rp5300
ag1
(g22
S'\xfd\x9f\r*E\xeb\xedA'
p5301
tp5302
Rp5303
ag1
(g22
S'\xc2\xdd2a\x91w\xefA'
p5304
tp5305
Rp5306
ag1
(g22
S'\xc8\xcd\xd9\x84}\x9e\xf0A'
p5307
tp5308
Rp5309
a(lp5310
I2008
aI2009
aI2010
aI2011
aI2012
aI2013
aI2014
aI2015
aI2016
atp5311
a(g1
(g2
(S'S6'
p5312
I0
I1
tp5313
Rp5314
(I3
S'|'
p5315
NNNI6
I1
I0
tp5316
bS'Malawi'
p5317
tp5318
Rp5319
g1
(g2
(S'S60'
p5320
I0
I1
tp5321
Rp5322
(I3
S'|'
p5323
NNNI60
I1
I0
tp5324
bS'Improved sanitation facilities (% of population with access)'
p5325
tp5326
Rp5327
(lp5328
g1
(g22
S'\x12N\xb3 D\xb6\xd4A'
p5329
tp5330
Rp5331
ag1
(g22
S'\x97\x8b\xc0nD\xdd\xd4A'
p5332
tp5333
Rp5334
ag1
(g22
S'\xe3\xa5C\x82\xdb\x1e\xd8A'
p5335
tp5336
Rp5337
ag1
(g22
S'#\xdb\xd3\xbf\xad\xb3\xdfA'
p5338
tp5339
Rp5340
ag1
(g22
S'\x868\x87L\x14\x1f\xe1A'
p5341
tp5342
Rp5343
ag1
(g22
S'Ed.VD\xbf\xe3A'
p5344
tp5345
Rp5346
ag1
(g22
S'Q\x83\x9fy\x81\xbb\xe5A'
p5347
tp5348
Rp5349
ag1
(g22
S'\xd5\xb2`\x04\xf7\xb6\xe3A'
p5350
tp5351
Rp5352
a(lp5353
I2008
aI2009
aI2010
aI2011
aI2012
aI2013
aI2014
aI2015
atp5354
a(g1
(g2
(S'S8'
p5355
I0
I1
tp5356
Rp5357
(I3
S'|'
p5358
NNNI8
I1
I0
tp5359
bS'Malaysia'
p5360
tp5361
Rp5362
g1
(g2
(S'S60'
p5363
I0
I1
tp5364
Rp5365
(I3
S'|'
p5366
NNNI60
I1
I0
tp5367
bS'Improved sanitation facilities (% of population with access)'
p5368
tp5369
Rp5370
(lp5371
g1
(g22
S'7i`\xe2\xe9\x8f@B'
p5372
tp5373
Rp5374
ag1
(g22
S'\x00\x006\x9dP\xa9BB'
p5375
tp5376
Rp5377
ag1
(g22
S'3C\x01\x82\xca@EB'
p5378
tp5379
Rp5380
ag1
(g22
S'\xb0\xf22\x82@\tGB'
p5381
tp5382
Rp5383
ag1
(g22
S'\xd7S\xba\x07\xc3\xa5BB'
p5384
tp5385
Rp5386
ag1
(g22
S'\xf0\xd7\x99\x0b\x96dHB'
p5387
tp5388
Rp5389
ag1
(g22
S"'\x11\xfeo\xda\x1dLB"
p5390
tp5391
Rp5392
ag1
(g22
S'1H\xe2c\x0f\xa7MB'
p5393
tp5394
Rp5395
ag1
(g22
S'd+\xd6\xac\xa4\xf9MB'
p5396
tp5397
Rp5398
a(lp5399
I2008
aI2009
aI2010
aI2011
aI2012
aI2013
aI2014
aI2015
aI2016
atp5400
a(g1
(g2
(S'S8'
p5401
I0
I1
tp5402
Rp5403
(I3
S'|'
p5404
NNNI8
I1
I0
tp5405
bS'Maldives'
p5406
tp5407
Rp5408
g1
(g2
(S'S60'
p5409
I0
I1
tp5410
Rp5411
(I3
S'|'
p5412
NNNI60
I1
I0
tp5413
bS'Improved sanitation facilities (% of population with access)'
p5414
tp5415
Rp5416
(lp5417
g1
(g22
S'\xf1K\x95\xb5\x92!\xcbA'
p5418
tp5419
Rp5420
ag1
(g22
S'\xd9=k\x0c\xf5n\xd0A'
p5421
tp5422
Rp5423
ag1
(g22
S'\xfa\xb8B\xfb\xeb\xf3\xdcA'
p5424
tp5425
Rp5426
ag1
(g22
S'\xa3\xcc\xf3\x8d\xf3\xbc\xe1A'
p5427
tp5428
Rp5429
ag1
(g22
S' F\xca6"3\xdaA'
p5430
tp5431
Rp5432
ag1
(g22
S'\x89)\x95\x8c\xca\xed\xddA'
p5433
tp5434
Rp5435
ag1
(g22
S'2U ~\xb8\x82\xe3A'
p5436
tp5437
Rp5438
ag1
(g22
S'\xaf|\xfa\xd7=&\xe2A'
p5439
tp5440
Rp5441
ag1
(g22
S'fNN(\xa8W\xe4A'
p5442
tp5443
Rp5444
a(lp5445
I2008
aI2009
aI2010
aI2011
aI2012
aI2013
aI2014
aI2015
aI2016
atp5446
a(g1
(g2
(S'S4'
p5447
I0
I1
tp5448
Rp5449
(I3
S'|'
p5450
NNNI4
I1
I0
tp5451
bS'Mali'
p5452
tp5453
Rp5454
g1
(g2
(S'S60'
p5455
I0
I1
tp5456
Rp5457
(I3
S'|'
p5458
NNNI60
I1
I0
tp5459
bS'Improved sanitation facilities (% of population with access)'
p5460
tp5461
Rp5462
(lp5463
g1
(g22
S'\xc63\x82\x98\xf0i\xdfA'
p5464
tp5465
Rp5466
ag1
(g22
S'\x99\xf5\x1e@\x0cs\xe2A'
p5467
tp5468
Rp5469
ag1
(g22
S'kH\xa6\x8b%>\xe6A'
p5470
tp5471
Rp5472
ag1
(g22
S'\xcd\xaf\x1d K\x14\xefA'
p5473
tp5474
Rp5475
ag1
(g22
S'\x92?+\xf3A\xf7\xe8A'
p5476
tp5477
Rp5478
ag1
(g22
S'\x0f\x7f\x935\xa1\x8e\xefA'
p5479
tp5480
Rp5481
ag1
(g22
S'J\x07\x1f\t\xa8H\xf0A'
p5482
tp5483
Rp5484
ag1
(g22
S'\x9f\xab\x06\xdd\x95\xbe\xf0A'
p5485
tp5486
Rp5487
ag1
(g22
S'\xac\xf3\xd0\xd5\xa5\x95\xf5A'
p5488
tp5489
Rp5490
a(lp5491
I2008
aI2009
aI2010
aI2011
aI2012
aI2013
aI2014
aI2015
aI2016
atp5492
a(g1
(g2
(S'S5'
p5493
I0
I1
tp5494
Rp5495
(I3
S'|'
p5496
NNNI5
I1
I0
tp5497
bS'Malta'
p5498
tp5499
Rp5500
g1
(g2
(S'S60'
p5501
I0
I1
tp5502
Rp5503
(I3
S'|'
p5504
NNNI60
I1
I0
tp5505
bS'Improved sanitation facilities (% of population with access)'
p5506
tp5507
Rp5508
(lp5509
g1
(g22
S'N\x8b\x03\x9b \xb8\xf7A'
p5510
tp5511
Rp5512
ag1
(g22
S'\xad]V\x11X\xc9\xfeA'
p5513
tp5514
Rp5515
ag1
(g22
S'\xde\xf1\x99\xf3\x01\xb4\x02B'
p5516
tp5517
Rp5518
ag1
(g22
S'\xd0U\xda\x83W\xcf\x05B'
p5519
tp5520
Rp5521
ag1
(g22
S'\xc30VnIM\x02B'
p5522
tp5523
Rp5524
ag1
(g22
S'\xf3\x0evs\xff\x9e\x03B'
p5525
tp5526
Rp5527
ag1
(g22
S'u\x93lD=\x81\x05B'
p5528
tp5529
Rp5530
ag1
(g22
S'5ou\x99}\x15\x1aB'
p5531
tp5532
Rp5533
ag1
(g22
S'k\x9a\xb5Z\xd8N\x1aB'
p5534
tp5535
Rp5536
a(lp5537
I2008
aI2009
aI2010
aI2011
aI2012
aI2013
aI2014
aI2015
aI2016
atp5538
a(g1
(g2
(S'S16'
p5539
I0
I1
tp5540
Rp5541
(I3
S'|'
p5542
NNNI16
I1
I0
tp5543
bS'Marshall Islands'
p5544
tp5545
Rp5546
g1
(g2
(S'S60'
p5547
I0
I1
tp5548
Rp5549
(I3
S'|'
p5550
NNNI60
I1
I0
tp5551
bS'Improved sanitation facilities (% of population with access)'
p5552
tp5553
Rp5554
(lp5555
g1
(g22
S'T\xc5\xf4s\x19T\xa1A'
p5556
tp5557
Rp5558
ag1
(g22
S'\n\x9d\xbf`\xa5\x1d\xa1A'
p5559
tp5560
Rp5561
ag1
(g22
S'\xfd\xda\xa2\x02\xf3g\xa2A'
p5562
tp5563
Rp5564
ag1
(g22
S'0\xd8\x95\x18\xd2!\xa2A'
p5565
tp5566
Rp5567
ag1
(g22
S'\xaf}i\xb9\xabK\xa4A'
p5568
tp5569
Rp5570
ag1
(g22
S'\xc7\xbc&L*$\xa8A'
p5571
tp5572
Rp5573
ag1
(g22
S'{h\xd7O\xb7\xec\xa6A'
p5574
tp5575
Rp5576
ag1
(g22
S'v\xa6\x98C7m\xa8A'
p5577
tp5578
Rp5579
a(lp5580
I2008
aI2009
aI2010
aI2011
aI2012
aI2013
aI2014
aI2015
atp5581
a(g1
(g2
(S'S10'
p5582
I0
I1
tp5583
Rp5584
(I3
S'|'
p5585
NNNI10
I1
I0
tp5586
bS'Mauritania'
p5587
tp5588
Rp5589
g1
(g2
(S'S60'
p5590
I0
I1
tp5591
Rp5592
(I3
S'|'
p5593
NNNI60
I1
I0
tp5594
bS'Improved sanitation facilities (% of population with access)'
p5595
tp5596
Rp5597
(lp5598
g1
(g22
S'O#\xf2\xb1A\x92\xf0A'
p5599
tp5600
Rp5601
ag1
(g22
S'\xb7\xa8\x92Q\x04>\xf0A'
p5602
tp5603
Rp5604
a(lp5605
I2015
aI2016
atp5606
a(g1
(g2
(S'S9'
p5607
I0
I1
tp5608
Rp5609
(I3
S'|'
p5610
NNNI9
I1
I0
tp5611
bS'Mauritius'
p5612
tp5613
Rp5614
g1
(g2
(S'S60'
p5615
I0
I1
tp5616
Rp5617
(I3
S'|'
p5618
NNNI60
I1
I0
tp5619
bS'Improved sanitation facilities (% of population with access)'
p5620
tp5621
Rp5622
(lp5623
g1
(g22
S'\xec\xa3\xc83\x9f\xeb\xefA'
p5624
tp5625
Rp5626
ag1
(g22
S'\xc7\x11\xddw\x94\xcf\xf2A'
p5627
tp5628
Rp5629
ag1
(g22
S'\xd7\xdd\x0f\x00\xc3\xac\xf5A'
p5630
tp5631
Rp5632
ag1
(g22
S'\xc2]t\xe1\xc5\xe1\xf9A'
p5633
tp5634
Rp5635
ag1
(g22
S'S"\x87MU\x8a\xf4A'
p5636
tp5637
Rp5638
ag1
(g22
S'\x1a\xd1glA1\x05B'
p5639
tp5640
Rp5641
ag1
(g22
S'W\xe1\x12\xf0\x1b#\x00B'
p5642
tp5643
Rp5644
ag1
(g22
S'\x957\x91\xf7\xb9\xcb\x00B'
p5645
tp5646
Rp5647
ag1
(g22
S'\xfam\xc6I\xc1k\x01B'
p5648
tp5649
Rp5650
a(lp5651
I2008
aI2009
aI2010
aI2011
aI2012
aI2013
aI2014
aI2015
aI2016
atp5652
a(g1
(g2
(S'S6'
p5653
I0
I1
tp5654
Rp5655
(I3
S'|'
p5656
NNNI6
I1
I0
tp5657
bS'Mexico'
p5658
tp5659
Rp5660
g1
(g2
(S'S60'
p5661
I0
I1
tp5662
Rp5663
(I3
S'|'
p5664
NNNI60
I1
I0
tp5665
bS'Improved sanitation facilities (% of population with access)'
p5666
tp5667
Rp5668
(lp5669
g1
(g22
S'\xaa\x11\x1c6\xc8\xffNB'
p5670
tp5671
Rp5672
ag1
(g22
S'FN\x8c\xc0)\xc9QB'
p5673
tp5674
Rp5675
ag1
(g22
S'w\x1e\xbc\xdc\x9a\xb0SB'
p5676
tp5677
Rp5678
ag1
(g22
S'\xe9\xb6\xd3\x85\x03,UB'
p5679
tp5680
Rp5681
ag1
(g22
S'\xc1\xd2@W\xd5bPB'
p5682
tp5683
Rp5684
ag1
(g22
S'=\x8a\x95\x04\xefsTB'
p5685
tp5686
Rp5687
ag1
(g22
S'b\x90\xdf\x11\r\x02XB'
p5688
tp5689
Rp5690
ag1
(g22
S'\\_\xce\xcc\xe3\x8fYB'
p5691
tp5692
Rp5693
ag1
(g22
S'\x9c\x04\xfeD\xaa\x01[B'
p5694
tp5695
Rp5696
a(lp5697
I2008
aI2009
aI2010
aI2011
aI2012
aI2013
aI2014
aI2015
aI2016
atp5698
a(g1
(g2
(S'S46'
p5699
I0
I1
tp5700
Rp5701
(I3
S'|'
p5702
NNNI46
I1
I0
tp5703
bS'Middle East & North Africa (all income levels)'
p5704
tp5705
Rp5706
g1
(g2
(S'S60'
p5707
I0
I1
tp5708
Rp5709
(I3
S'|'
p5710
NNNI60
I1
I0
tp5711
bS'Improved sanitation facilities (% of population with access)'
p5712
tp5713
Rp5714
(lp5715
g1
(g22
S'\xfc\x19\xb9\x8d\xc0\x15bB'
p5716
tp5717
Rp5718
ag1
(g22
S'\xee\xcc\xd3\x95&\xecdB'
p5719
tp5720
Rp5721
ag1
(g22
S'\xd9\xc2\xbcC\xd7\xcciB'
p5722
tp5723
Rp5724
ag1
(g22
S')\x8c\x9fLY\x03pB'
p5725
tp5726
Rp5727
ag1
(g22
S'\xc5\xb4\xd3&b2lB'
p5728
tp5729
Rp5730
ag1
(g22
S'\xe1b\xe3\xf3Z\xf8nB'
p5731
tp5732
Rp5733
ag1
(g22
S'H\x95\xee\xe8\xf94qB'
p5734
tp5735
Rp5736
ag1
(g22
S'\x14Fz\xf7\x0eQsB'
p5737
tp5738
Rp5739
ag1
(g22
S'\x1feUt\x1bKtB'
p5740
tp5741
Rp5742
a(lp5743
I2008
aI2009
aI2010
aI2011
aI2012
aI2013
aI2014
aI2015
aI2016
atp5744
a(g1
(g2
(S'S44'
p5745
I0
I1
tp5746
Rp5747
(I3
S'|'
p5748
NNNI44
I1
I0
tp5749
bS'Middle East & North Africa (developing only)'
p5750
tp5751
Rp5752
g1
(g2
(S'S60'
p5753
I0
I1
tp5754
Rp5755
(I3
S'|'
p5756
NNNI60
I1
I0
tp5757
bS'Improved sanitation facilities (% of population with access)'
p5758
tp5759
Rp5760
(lp5761
g1
(g22
S'\xae\x87\xec\xe6;\xc8NB'
p5762
tp5763
Rp5764
ag1
(g22
S'\x93\xb86\xda\xdc\xcfPB'
p5765
tp5766
Rp5767
ag1
(g22
S'}\xcf\xe65\xd4?TB'
p5768
tp5769
Rp5770
ag1
(g22
S'\xd7\x9b\xd3\xdd\xa9\x93ZB'
p5771
tp5772
Rp5773
ag1
(g22
S'\xd5\xf01\x8e\xae|XB'
p5774
tp5775
Rp5776
ag1
(g22
S'L\xaf\x18\x82,\xb7ZB'
p5777
tp5778
Rp5779
ag1
(g22
S'\xc1\xa2\x1a\x8cZ=\\B'
p5780
tp5781
Rp5782
ag1
(g22
S'D\x8f\xdc\x0e\xcf\n`B'
p5783
tp5784
Rp5785
a(lp5786
I2008
aI2009
aI2010
aI2011
aI2012
aI2013
aI2014
aI2015
atp5787
a(g1
(g2
(S'S13'
p5788
I0
I1
tp5789
Rp5790
(I3
S'|'
p5791
NNNI13
I1
I0
tp5792
bS'Middle income'
p5793
tp5794
Rp5795
g1
(g2
(S'S60'
p5796
I0
I1
tp5797
Rp5798
(I3
S'|'
p5799
NNNI60
I1
I0
tp5800
bS'Improved sanitation facilities (% of population with access)'
p5801
tp5802
Rp5803
(lp5804
g1
(g22
S'3\x8d\xd6\x93:b\x84B'
p5805
tp5806
Rp5807
ag1
(g22
S'\xa4(w&\xe3\xe5\x87B'
p5808
tp5809
Rp5810
ag1
(g22
S'{\xf6\xb2\x80i2\x8dB'
p5811
tp5812
Rp5813
ag1
(g22
S'{+t\x05\x17\xe4\x91B'
p5814
tp5815
Rp5816
ag1
(g22
S'\xaeIv\xcd\xef\xf6\x8dB'
p5817
tp5818
Rp5819
ag1
(g22
S'\xf6\xc0j\xffs6\x93B'
p5820
tp5821
Rp5822
ag1
(g22
S'\x1f\x1am\xa0\x01\x99\x97B'
p5823
tp5824
Rp5825
ag1
(g22
S'R\x0f\x02\x1dy\xdb\x98B'
p5826
tp5827
Rp5828
ag1
(g22
S'\xe1\xce/\x88G(\x9aB'
p5829
tp5830
Rp5831
a(lp5832
I2008
aI2009
aI2010
aI2011
aI2012
aI2013
aI2014
aI2015
aI2016
atp5833
a(g1
(g2
(S'S7'
p5834
I0
I1
tp5835
Rp5836
(I3
S'|'
p5837
NNNI7
I1
I0
tp5838
bS'Moldova'
p5839
tp5840
Rp5841
g1
(g2
(S'S60'
p5842
I0
I1
tp5843
Rp5844
(I3
S'|'
p5845
NNNI60
I1
I0
tp5846
bS'Improved sanitation facilities (% of population with access)'
p5847
tp5848
Rp5849
(lp5850
g1
(g22
S'\x00\x00\x00\xa8\t\xea\xe3A'
p5851
tp5852
Rp5853
ag1
(g22
S'\x00\x00\x00\xe6vO\xe7A'
p5854
tp5855
Rp5856
ag1
(g22
S'\x00\x00\x00\x92\xf8<\xf0A'
p5857
tp5858
Rp5859
ag1
(g22
S'\x00\x00\x00x\xa3\x1f\xf5A'
p5860
tp5861
Rp5862
ag1
(g22
S'\x00\x00\x00\x06\x8a\x9d\xedA'
p5863
tp5864
Rp5865
ag1
(g22
S'\x00\x00\x00\x0f\x95\xa0\xf0A'
p5866
tp5867
Rp5868
ag1
(g22
S'\x00\x00\x00\x1a7\xfd\xf5A'
p5869
tp5870
Rp5871
ag1
(g22
S'\x00\x00\x00K\x15\xe9\xf5A'
p5872
tp5873
Rp5874
ag1
(g22
S'\x00\x00\x00\x87Q~\xf7A'
p5875
tp5876
Rp5877
a(lp5878
I2008
aI2009
aI2010
aI2011
aI2012
aI2013
aI2014
aI2015
aI2016
atp5879
a(g1
(g2
(S'S6'
p5880
I0
I1
tp5881
Rp5882
(I3
S'|'
p5883
NNNI6
I1
I0
tp5884
bS'Monaco'
p5885
tp5886
Rp5887
g1
(g2
(S'S60'
p5888
I0
I1
tp5889
Rp5890
(I3
S'|'
p5891
NNNI60
I1
I0
tp5892
bS'Improved sanitation facilities (% of population with access)'
p5893
tp5894
Rp5895
(lp5896
(lp5897
tp5898
a(g1
(g2
(S'S8'
p5899
I0
I1
tp5900
Rp5901
(I3
S'|'
p5902
NNNI8
I1
I0
tp5903
bS'Mongolia'
p5904
tp5905
Rp5906
g1
(g2
(S'S60'
p5907
I0
I1
tp5908
Rp5909
(I3
S'|'
p5910
NNNI60
I1
I0
tp5911
bS'Improved sanitation facilities (% of population with access)'
p5912
tp5913
Rp5914
(lp5915
g1
(g22
S'\x00\x00\x00\xf4\xd8[\xd8A'
p5916
tp5917
Rp5918
ag1
(g22
S'\x00\x00\x00`\x00m\xdeA'
p5919
tp5920
Rp5921
ag1
(g22
S"\x15\x00\x80'\xae\x91\xe3A"
p5922
tp5923
Rp5924
ag1
(g22
S'\x1anZr\x1cy\xedA'
p5925
tp5926
Rp5927
ag1
(g22
S'e\xaa\xad\xfd\x98;\xe5A'
p5928
tp5929
Rp5930
ag1
(g22
S'\x03&]\xe5Y\xbf\xf0A'
p5931
tp5932
Rp5933
ag1
(g22
S'\xe1Q{\xb4&\x97\xffA'
p5934
tp5935
Rp5936
ag1
(g22
S"'\xb1]\x8dR\xc5\x00B"
p5937
tp5938
Rp5939
ag1
(g22
S'WO\xc9\xbfx(\xffA'
p5940
tp5941
Rp5942
a(lp5943
I2008
aI2009
aI2010
aI2011
aI2012
aI2013
aI2014
aI2015
aI2016
atp5944
a(g1
(g2
(S'S10'
p5945
I0
I1
tp5946
Rp5947
(I3
S'|'
p5948
NNNI10
I1
I0
tp5949
bS'Montenegro'
p5950
tp5951
Rp5952
g1
(g2
(S'S60'
p5953
I0
I1
tp5954
Rp5955
(I3
S'|'
p5956
NNNI60
I1
I0
tp5957
bS'Improved sanitation facilities (% of population with access)'
p5958
tp5959
Rp5960
(lp5961
g1
(g22
S'\x8b\xe0&\x90\x83b\xe8A'
p5962
tp5963
Rp5964
ag1
(g22
S'"l\n \'\x7f\xf0A'
p5965
tp5966
Rp5967
ag1
(g22
S'\x05\xfa\x87|s\xda\xe5A'
p5968
tp5969
Rp5970
ag1
(g22
S'J$\x02\x12\xe3\x0e\xe5A'
p5971
tp5972
Rp5973
ag1
(g22
S'\xa9M\x1f2>|\xe7A'
p5974
tp5975
Rp5976
ag1
(g22
S'\xa5\x14\xb2\x96\x90\xbd\xe5A'
p5977
tp5978
Rp5979
ag1
(g22
S'\x1f\x11\xfe\xb70\xe3\xe5A'
p5980
tp5981
Rp5982
a(lp5983
I2010
aI2011
aI2012
aI2013
aI2014
aI2015
aI2016
atp5984
a(g1
(g2
(S'S7'
p5985
I0
I1
tp5986
Rp5987
(I3
S'|'
p5988
NNNI7
I1
I0
tp5989
bS'Morocco'
p5990
tp5991
Rp5992
g1
(g2
(S'S60'
p5993
I0
I1
tp5994
Rp5995
(I3
S'|'
p5996
NNNI60
I1
I0
tp5997
bS'Improved sanitation facilities (% of population with access)'
p5998
tp5999
Rp6000
(lp6001
g1
(g22
S'\x868\xceP\x8a!\x14B'
p6002
tp6003
Rp6004
ag1
(g22
S'+\xf6\x9eg/\\\x17B'
p6005
tp6006
Rp6007
ag1
(g22
S'\xdc(\xc6Y\xc2|\x1eB'
p6008
tp6009
Rp6010
ag1
(g22
S':2\xe0G\xa7\xe9$B'
p6011
tp6012
Rp6013
ag1
(g22
S'\xfd\x87\x16\\\x05d!B'
p6014
tp6015
Rp6016
ag1
(g22
S'\x01-+v&6"B'
p6017
tp6018
Rp6019
ag1
(g22
S'1\xd9,\xc4\x13\xb5&B'
p6020
tp6021
Rp6022
ag1
(g22
S"\xf1\xd4\xb4#\x0b>'B"
p6023
tp6024
Rp6025
ag1
(g22
S"lX\x03\x0e\xd0 'B"
p6026
tp6027
Rp6028
a(lp6029
I2008
aI2009
aI2010
aI2011
aI2012
aI2013
aI2014
aI2015
aI2016
atp6030
a(g1
(g2
(S'S10'
p6031
I0
I1
tp6032
Rp6033
(I3
S'|'
p6034
NNNI10
I1
I0
tp6035
bS'Mozambique'
p6036
tp6037
Rp6038
g1
(g2
(S'S60'
p6039
I0
I1
tp6040
Rp6041
(I3
S'|'
p6042
NNNI60
I1
I0
tp6043
bS'Improved sanitation facilities (% of population with access)'
p6044
tp6045
Rp6046
(lp6047
g1
(g22
S':\x06\xfe{\xf6\xf4\xe8A'
p6048
tp6049
Rp6050
ag1
(g22
S'O\x1e\xf8O\x0e=\xefA'
p6051
tp6052
Rp6053
ag1
(g22
S'\xc7h\xc2\xad\x8e\x96\xf0A'
p6054
tp6055
Rp6056
ag1
(g22
S'\x90\x14\x13\xf4j\xd6\xf3A'
p6057
tp6058
Rp6059
ag1
(g22
S'Q\x03aF\xcb:\xf2A'
p6060
tp6061
Rp6062
ag1
(g22
S'\x01\xde\t\x90\xd9\x89\xf3A'
p6063
tp6064
Rp6065
ag1
(g22
S'\x18\xe0gW\x8ce\xfdA'
p6066
tp6067
Rp6068
ag1
(g22
S'\x9f\xbc\xf2\x14m\xeb\x06B'
p6069
tp6070
Rp6071
ag1
(g22
S'<=b\xf5\x89\x91\x07B'
p6072
tp6073
Rp6074
a(lp6075
I2008
aI2009
aI2010
aI2011
aI2012
aI2013
aI2014
aI2015
aI2016
atp6076
a(g1
(g2
(S'S7'
p6077
I0
I1
tp6078
Rp6079
(I3
S'|'
p6080
NNNI7
I1
I0
tp6081
bS'Myanmar'
p6082
tp6083
Rp6084
g1
(g2
(S'S60'
p6085
I0
I1
tp6086
Rp6087
(I3
S'|'
p6088
NNNI60
I1
I0
tp6089
bS'Improved sanitation facilities (% of population with access)'
p6090
tp6091
Rp6092
(lp6093
g1
(g22
S'\xfb\x91\x0e\xc4X\x8b\xe9A'
p6094
tp6095
Rp6096
ag1
(g22
S'eS\xbaI\xe0\x7f\xedA'
p6097
tp6098
Rp6099
ag1
(g22
S'U\x98\x91\x16\xc6\xa3\xf1A'
p6100
tp6101
Rp6102
ag1
(g22
S'(\xe1\x90C\x1d}\xf4A'
p6103
tp6104
Rp6105
ag1
(g22
S'\xefI\xe1\x87\x0e\x96\xf5A'
p6106
tp6107
Rp6108
ag1
(g22
S'%\x12q\x86 F\xf8A'
p6109
tp6110
Rp6111
ag1
(g22
S'[\xb1\xda\x99\x02\xc5\x03B'
p6112
tp6113
Rp6114
ag1
(g22
S'\xd2o\xe8\xc6\xa5\x85\x05B'
p6115
tp6116
Rp6117
ag1
(g22
S'\xebb\xf9o\x1c\x18\tB'
p6118
tp6119
Rp6120
a(lp6121
I2008
aI2009
aI2010
aI2011
aI2012
aI2013
aI2014
aI2015
aI2016
atp6122
a(g1
(g2
(S'S7'
p6123
I0
I1
tp6124
Rp6125
(I3
S'|'
p6126
NNNI7
I1
I0
tp6127
bS'Namibia'
p6128
tp6129
Rp6130
g1
(g2
(S'S60'
p6131
I0
I1
tp6132
Rp6133
(I3
S'|'
p6134
NNNI60
I1
I0
tp6135
bS'Improved sanitation facilities (% of population with access)'
p6136
tp6137
Rp6138
(lp6139
g1
(g22
S'\xe0\x9cg\x98\xaf\xb4\xe6A'
p6140
tp6141
Rp6142
ag1
(g22
S'\xbc"\xa9Q*\x87\xe8A'
p6143
tp6144
Rp6145
ag1
(g22
S'\x8e\x92\xce\x8f\xe5+\xeeA'
p6146
tp6147
Rp6148
ag1
(g22
S'\x9eAoH\x0c:\xf2A'
p6149
tp6150
Rp6151
ag1
(g22
S'\x99\xc7\xff\xb6\xf1\x16\xf4A'
p6152
tp6153
Rp6154
ag1
(g22
S'\x80+\xb9\x0b\x7f\x9d\xf8A'
p6155
tp6156
Rp6157
ag1
(g22
S'8J\x05|\xa8\x0f\xfaA'
p6158
tp6159
Rp6160
ag1
(g22
S'\x84\x81\x1ag?\x10\xfeA'
p6161
tp6162
Rp6163
ag1
(g22
S'\xcc\xdd\xe7E}\xbb\xfdA'
p6164
tp6165
Rp6166
a(lp6167
I2008
aI2009
aI2010
aI2011
aI2012
aI2013
aI2014
aI2015
aI2016
atp6168
a(g1
(g2
(S'S5'
p6169
I0
I1
tp6170
Rp6171
(I3
S'|'
p6172
NNNI5
I1
I0
tp6173
bS'Nepal'
p6174
tp6175
Rp6176
g1
(g2
(S'S60'
p6177
I0
I1
tp6178
Rp6179
(I3
S'|'
p6180
NNNI60
I1
I0
tp6181
bS'Improved sanitation facilities (% of population with access)'
p6182
tp6183
Rp6184
(lp6185
g1
(g22
S'\xec/;\x16\xd2\xe1\xe4A'
p6186
tp6187
Rp6188
ag1
(g22
S'\x81\x04\xa4p\x1d\x93\xe6A'
p6189
tp6190
Rp6191
ag1
(g22
S'\xdc\xd7\xe1S\xc5\xe2\xebA'
p6192
tp6193
Rp6194
ag1
(g22
S'\xd7\x92:\xd4L\x99\xf0A'
p6195
tp6196
Rp6197
ag1
(g22
S'U\xa4Mr\x9d2\xf3A'
p6198
tp6199
Rp6200
ag1
(g22
S'~\x1d\xd3\x857U\xf6A'
p6201
tp6202
Rp6203
ag1
(g22
S'5\x98\xe7#b\x8a\xf8A'
p6204
tp6205
Rp6206
ag1
(g22
S'D\xe9\xd7\x9f\x81\xf6\xf9A'
p6207
tp6208
Rp6209
ag1
(g22
S'\x9dK\xe1t>a\xfcA'
p6210
tp6211
Rp6212
a(lp6213
I2008
aI2009
aI2010
aI2011
aI2012
aI2013
aI2014
aI2015
aI2016
atp6214
a(g1
(g2
(S'S11'
p6215
I0
I1
tp6216
Rp6217
(I3
S'|'
p6218
NNNI11
I1
I0
tp6219
bS'Netherlands'
p6220
tp6221
Rp6222
g1
(g2
(S'S60'
p6223
I0
I1
tp6224
Rp6225
(I3
S'|'
p6226
NNNI60
I1
I0
tp6227
bS'Improved sanitation facilities (% of population with access)'
p6228
tp6229
Rp6230
(lp6231
g1
(g22
S'\xdb\x89\x12g\xe4\x99ZB'
p6232
tp6233
Rp6234
ag1
(g22
S'Z4\xe1\xc5\x15p^B'
p6235
tp6236
Rp6237
ag1
(g22
S'\nO\x8d\x05j\xafbB'
p6238
tp6239
Rp6240
ag1
(g22
S'\xa2\x9d\x9ea\xecYdB'
p6241
tp6242
Rp6243
ag1
(g22
S'\xa4p\xb1\xc9\xe8p_B'
p6244
tp6245
Rp6246
ag1
(g22
S'\xd9:`\xe2)gaB'
p6247
tp6248
Rp6249
ag1
(g22
S'\x10\x04\xd6\x90\xce\xeacB'
p6250
tp6251
Rp6252
ag1
(g22
S'\x91\x05\xe5\x95\x95-cB'
p6253
tp6254
Rp6255
ag1
(g22
S'\xb2Q\xe1-i\x87cB'
p6256
tp6257
Rp6258
a(lp6259
I2008
aI2009
aI2010
aI2011
aI2012
aI2013
aI2014
aI2015
aI2016
atp6260
a(g1
(g2
(S'S13'
p6261
I0
I1
tp6262
Rp6263
(I3
S'|'
p6264
NNNI13
I1
I0
tp6265
bS'New Caledonia'
p6266
tp6267
Rp6268
g1
(g2
(S'S60'
p6269
I0
I1
tp6270
Rp6271
(I3
S'|'
p6272
NNNI60
I1
I0
tp6273
bS'Improved sanitation facilities (% of population with access)'
p6274
tp6275
Rp6276
(lp6277
g1
(g22
S'u\x8e\xc4b\x1eF\xe3A'
p6278
tp6279
Rp6280
ag1
(g22
S'\xef\xe1\xfei$\x11\xe8A'
p6281
tp6282
Rp6283
ag1
(g22
S'\xaaey\xfe\r\x90\xeeA'
p6284
tp6285
Rp6286
ag1
(g22
S'\xcc\xa8\xd1\xff\r\x1c\xf1A'
p6287
tp6288
Rp6289
ag1
(g22
S'<k\x95v\x0f\xa3\xeaA'
p6290
tp6291
Rp6292
ag1
(g22
S'\x895\xbc]\xd9\xdd\xf0A'
p6293
tp6294
Rp6295
ag1
(g22
S'v2\xf8\x01\x05\xf4\xf2A'
p6296
tp6297
Rp6298
ag1
(g22
S'\x9aN\xa8\xcf\xe4\xd0\xf2A'
p6299
tp6300
Rp6301
ag1
(g22
S'\xcf\xa0\xf6\xd5\x8a\x90\xf2A'
p6302
tp6303
Rp6304
a(lp6305
I2008
aI2009
aI2010
aI2011
aI2012
aI2013
aI2014
aI2015
aI2016
atp6306
a(g1
(g2
(S'S11'
p6307
I0
I1
tp6308
Rp6309
(I3
S'|'
p6310
NNNI11
I1
I0
tp6311
bS'New Zealand'
p6312
tp6313
Rp6314
g1
(g2
(S'S60'
p6315
I0
I1
tp6316
Rp6317
(I3
S'|'
p6318
NNNI60
I1
I0
tp6319
bS'Improved sanitation facilities (% of population with access)'
p6320
tp6321
Rp6322
(lp6323
g1
(g22
S'\x07\x90C\x8f\x81\x9a$B'
p6324
tp6325
Rp6326
ag1
(g22
S'\xa0\xa9\x7f\xa3q\xad$B'
p6327
tp6328
Rp6329
ag1
(g22
S'\xc9V\xa8\x92\xb4\x0b)B'
p6330
tp6331
Rp6332
ag1
(g22
S'\xd58\xc32\xfc*+B'
p6333
tp6334
Rp6335
ag1
(g22
S'\xa9\x93[\xba\xd6\x8d#B'
p6336
tp6337
Rp6338
ag1
(g22
S"\xed>@\xaa\x00\xb9'B"
p6339
tp6340
Rp6341
ag1
(g22
S'*\xa9>?\x9eW,B'
p6342
tp6343
Rp6344
ag1
(g22
S'5~\x15\x85\xed<-B'
p6345
tp6346
Rp6347
ag1
(g22
S'\xe0\xad\x11-\xd8\r.B'
p6348
tp6349
Rp6350
a(lp6351
I2008
aI2009
aI2010
aI2011
aI2012
aI2013
aI2014
aI2015
aI2016
atp6352
a(g1
(g2
(S'S9'
p6353
I0
I1
tp6354
Rp6355
(I3
S'|'
p6356
NNNI9
I1
I0
tp6357
bS'Nicaragua'
p6358
tp6359
Rp6360
g1
(g2
(S'S60'
p6361
I0
I1
tp6362
Rp6363
(I3
S'|'
p6364
NNNI60
I1
I0
tp6365
bS'Improved sanitation facilities (% of population with access)'
p6366
tp6367
Rp6368
(lp6369
g1
(g22
S'\x00\x00\x000\xb7\xe8\xe6A'
p6370
tp6371
Rp6372
ag1
(g22
S'\x00\x00\x00X&_\xedA'
p6373
tp6374
Rp6375
ag1
(g22
S'\x00\x00\x00\n\xcf\x8d\xf1A'
p6376
tp6377
Rp6378
ag1
(g22
S'\x00\x00\x00\xf0\x84\x8f\xf4A'
p6379
tp6380
Rp6381
ag1
(g22
S'\x00\x00\x00\xda\rp\xf1A'
p6382
tp6383
Rp6384
ag1
(g22
S'\x00\x00\x00\xa4\xf9\xd0\xf3A'
p6385
tp6386
Rp6387
ag1
(g22
S'\x00\x00\x00*u\x7f\xf8A'
p6388
tp6389
Rp6390
ag1
(g22
S'\x1f\x85\x0c\x15\x00\xc2\xfaA'
p6391
tp6392
Rp6393
ag1
(g22
S'\x00\x00\x00\xde^\xda\xfaA'
p6394
tp6395
Rp6396
a(lp6397
I2008
aI2009
aI2010
aI2011
aI2012
aI2013
aI2014
aI2015
aI2016
atp6398
a(g1
(g2
(S'S5'
p6399
I0
I1
tp6400
Rp6401
(I3
S'|'
p6402
NNNI5
I1
I0
tp6403
bS'Niger'
p6404
tp6405
Rp6406
g1
(g2
(S'S60'
p6407
I0
I1
tp6408
Rp6409
(I3
S'|'
p6410
NNNI60
I1
I0
tp6411
bS'Improved sanitation facilities (% of population with access)'
p6412
tp6413
Rp6414
(lp6415
g1
(g22
S'\x81C\xca\x02qR\xd0A'
p6416
tp6417
Rp6418
ag1
(g22
S'\xdaUrw=\xa7\xd0A'
p6419
tp6420
Rp6421
ag1
(g22
S'\xa1\xb9n\x97\xa8\x02\xd4A'
p6422
tp6423
Rp6424
ag1
(g22
S'\xa51\xe2\xdf;\xe5\xddA'
p6425
tp6426
Rp6427
ag1
(g22
S'C\xc5\xafW\x1e\xcb\xe3A'
p6428
tp6429
Rp6430
ag1
(g22
S'\xa1\xdbX\x9b\x06\xba\xe5A'
p6431
tp6432
Rp6433
ag1
(g22
S'\x86\xc9O\xf8\xe4\xe3\xe7A'
p6434
tp6435
Rp6436
ag1
(g22
S'B`\x82\x80\x15b\xe6A'
p6437
tp6438
Rp6439
a(lp6440
I2008
aI2009
aI2010
aI2011
aI2012
aI2013
aI2014
aI2015
atp6441
a(g1
(g2
(S'S7'
p6442
I0
I1
tp6443
Rp6444
(I3
S'|'
p6445
NNNI7
I1
I0
tp6446
bS'Nigeria'
p6447
tp6448
Rp6449
g1
(g2
(S'S60'
p6450
I0
I1
tp6451
Rp6452
(I3
S'|'
p6453
NNNI60
I1
I0
tp6454
bS'Improved sanitation facilities (% of population with access)'
p6455
tp6456
Rp6457
(lp6458
g1
(g22
S'\xc96\xdbjn\xa8 B'
p6459
tp6460
Rp6461
ag1
(g22
S'\xcf\x97\xc2\xb0\x1e\xbd#B'
p6462
tp6463
Rp6464
ag1
(g22
S'\x0bU\x18q\x87a,B'
p6465
tp6466
Rp6467
ag1
(g22
S'#\xbb\x1d\x1a\xa1\x013B'
p6468
tp6469
Rp6470
ag1
(g22
S'J\x1b\x8ag\x86..B'
p6471
tp6472
Rp6473
ag1
(g22
S'\x8f\xc2U,\x07\x8f4B'
p6474
tp6475
Rp6476
ag1
(g22
S'7)\x96\xda\x08\x979B'
p6477
tp6478
Rp6479
ag1
(g22
S'3\xf3\x92\xfaSl7B'
p6480
tp6481
Rp6482
a(lp6483
I2008
aI2009
aI2010
aI2011
aI2012
aI2013
aI2014
aI2015
atp6484
a(g1
(g2
(S'S13'
p6485
I0
I1
tp6486
Rp6487
(I3
S'|'
p6488
NNNI13
I1
I0
tp6489
bS'North America'
p6490
tp6491
Rp6492
g1
(g2
(S'S60'
p6493
I0
I1
tp6494
Rp6495
(I3
S'|'
p6496
NNNI60
I1
I0
tp6497
bS'Improved sanitation facilities (% of population with access)'
p6498
tp6499
Rp6500
(lp6501
g1
(g22
S'R\xe8vImJ\x85B'
p6502
tp6503
Rp6504
ag1
(g22
S'\xaeS\x008P\x8f\x88B'
p6505
tp6506
Rp6507
ag1
(g22
S'\x1fO\x0f^~\xac\x8aB'
p6508
tp6509
Rp6510
ag1
(g22
S'\xcd\xbc\x8d@\x07\xdb\x8bB'
p6511
tp6512
Rp6513
ag1
(g22
S')\x10\xd5\xd4\xa2b\x85B'
p6514
tp6515
Rp6516
ag1
(g22
S'Hqyc\x86\n\x89B'
p6517
tp6518
Rp6519
ag1
(g22
S'\xa4T\xac\x9d\xa77\x8cB'
p6520
tp6521
Rp6522
ag1
(g22
S'\xec\xe9\xba\x9d\xa2\x1a\x8dB'
p6523
tp6524
Rp6525
ag1
(g22
S'H\xf3g\x99\x80A\x8dB'
p6526
tp6527
Rp6528
a(lp6529
I2008
aI2009
aI2010
aI2011
aI2012
aI2013
aI2014
aI2015
aI2016
atp6530
a(g1
(g2
(S'S24'
p6531
I0
I1
tp6532
Rp6533
(I3
S'|'
p6534
NNNI24
I1
I0
tp6535
bS'Northern Mariana Islands'
p6536
tp6537
Rp6538
g1
(g2
(S'S60'
p6539
I0
I1
tp6540
Rp6541
(I3
S'|'
p6542
NNNI60
I1
I0
tp6543
bS'Improved sanitation facilities (% of population with access)'
p6544
tp6545
Rp6546
(lp6547
(lp6548
tp6549
a(g1
(g2
(S'S6'
p6550
I0
I1
tp6551
Rp6552
(I3
S'|'
p6553
NNNI6
I1
I0
tp6554
bS'Norway'
p6555
tp6556
Rp6557
g1
(g2
(S'S60'
p6558
I0
I1
tp6559
Rp6560
(I3
S'|'
p6561
NNNI60
I1
I0
tp6562
bS'Improved sanitation facilities (% of population with access)'
p6563
tp6564
Rp6565
(lp6566
g1
(g22
S'D\x8b\xa58\\\xda8B'
p6567
tp6568
Rp6569
ag1
(g22
S'\xd9\x8ei\x19\xddD=B'
p6570
tp6571
Rp6572
ag1
(g22
S'\xc9v\xfc\xf3\x9e\xf6BB'
p6573
tp6574
Rp6575
ag1
(g22
S"\x1b\xbf\x16*Q'EB"
p6576
tp6577
Rp6578
ag1
(g22
S'\xec\xf1\x85Z\x9a5>B'
p6579
tp6580
Rp6581
ag1
(g22
S'\xb6\xb3\x84\xfc\xd6}AB'
p6582
tp6583
Rp6584
ag1
(g22
S'!\x90<E!\x1eDB'
p6585
tp6586
Rp6587
ag1
(g22
S'\x12s\x9fx\xde\xc7DB'
p6588
tp6589
Rp6590
ag1
(g22
S'+Gd\x8c\x83\x89EB'
p6591
tp6592
Rp6593
a(lp6594
I2008
aI2009
aI2010
aI2011
aI2012
aI2013
aI2014
aI2015
aI2016
atp6595
a(g1
(g2
(S'S14'
p6596
I0
I1
tp6597
Rp6598
(I3
S'|'
p6599
NNNI14
I1
I0
tp6600
bS'Not classified'
p6601
tp6602
Rp6603
g1
(g2
(S'S60'
p6604
I0
I1
tp6605
Rp6606
(I3
S'|'
p6607
NNNI60
I1
I0
tp6608
bS'Improved sanitation facilities (% of population with access)'
p6609
tp6610
Rp6611
(lp6612
(lp6613
tp6614
a(g1
(g2
(S'S12'
p6615
I0
I1
tp6616
Rp6617
(I3
S'|'
p6618
NNNI12
I1
I0
tp6619
bS'OECD members'
p6620
tp6621
Rp6622
g1
(g2
(S'S60'
p6623
I0
I1
tp6624
Rp6625
(I3
S'|'
p6626
NNNI60
I1
I0
tp6627
bS'Improved sanitation facilities (% of population with access)'
p6628
tp6629
Rp6630
(lp6631
g1
(g22
S'\xcd\x8f/\x8a\x00"\xa4B'
p6632
tp6633
Rp6634
ag1
(g22
S'\xcdB\x85^\xa1l\xa7B'
p6635
tp6636
Rp6637
ag1
(g22
S'f\xa8\n\xb2\xdff\xabB'
p6638
tp6639
Rp6640
ag1
(g22
S'3g\x89?\x12\xe2\xadB'
p6641
tp6642
Rp6643
ag1
(g22
S'\x00!5y\x8f\xac\xa6B'
p6644
tp6645
Rp6646
ag1
(g22
S'f/@\x86\xd1\xa8\xa9B'
p6647
tp6648
Rp6649
ag1
(g22
S'\x9a\x01i\x13\xa5\xd3\xadB'
p6650
tp6651
Rp6652
ag1
(g22
S'f77\xe0QF\xadB'
p6653
tp6654
Rp6655
ag1
(g22
S'ft\xd7R\xa4\xb4\xadB'
p6656
tp6657
Rp6658
a(lp6659
I2008
aI2009
aI2010
aI2011
aI2012
aI2013
aI2014
aI2015
aI2016
atp6660
a(g1
(g2
(S'S4'
p6661
I0
I1
tp6662
Rp6663
(I3
S'|'
p6664
NNNI4
I1
I0
tp6665
bS'Oman'
p6666
tp6667
Rp6668
g1
(g2
(S'S60'
p6669
I0
I1
tp6670
Rp6671
(I3
S'|'
p6672
NNNI60
I1
I0
tp6673
bS'Improved sanitation facilities (% of population with access)'
p6674
tp6675
Rp6676
(lp6677
g1
(g22
S'2f\xcd\xd74$\x08B'
p6678
tp6679
Rp6680
ag1
(g22
S'\xf3\x1f\xa0\x9f|&\x0eB'
p6681
tp6682
Rp6683
ag1
(g22
S'}\x7f\x81{\x91\xdd\x14B'
p6684
tp6685
Rp6686
ag1
(g22
S'\xd7\x12\xc7r\xe8Y\x1cB'
p6687
tp6688
Rp6689
ag1
(g22
S'\xeaU\xfeV\xa4y\x17B'
p6690
tp6691
Rp6692
ag1
(g22
S'\xa3\xc1z-;\xa0\x1aB'
p6693
tp6694
Rp6695
ag1
(g22
S'\xc8\x87\xa8cn\xc3\x1fB'
p6696
tp6697
Rp6698
ag1
(g22
S'?\x95\x82\xd0\\k"B'
p6699
tp6700
Rp6701
ag1
(g22
S'\xa40\x01\xb0\xb2\xee%B'
p6702
tp6703
Rp6704
a(lp6705
I2008
aI2009
aI2010
aI2011
aI2012
aI2013
aI2014
aI2015
aI2016
atp6706
a(g1
(g2
(S'S18'
p6707
I0
I1
tp6708
Rp6709
(I3
S'|'
p6710
NNNI18
I1
I0
tp6711
bS'Other small states'
p6712
tp6713
Rp6714
g1
(g2
(S'S60'
p6715
I0
I1
tp6716
Rp6717
(I3
S'|'
p6718
NNNI60
I1
I0
tp6719
bS'Improved sanitation facilities (% of population with access)'
p6720
tp6721
Rp6722
(lp6723
g1
(g22
S"\x9a\x99'\xb8S\x99\x19B"
p6724
tp6725
Rp6726
ag1
(g22
S'\x85\xfcbo\x06\r\x1cB'
p6727
tp6728
Rp6729
ag1
(g22
S'\xda\xdb\xa4\n\xf8$!B'
p6730
tp6731
Rp6732
ag1
(g22
S'\x8a\xae\x91c\x16\xfa#B'
p6733
tp6734
Rp6735
ag1
(g22
S'\x0f\xbcs\xb8\xa9\xd6!B'
p6736
tp6737
Rp6738
ag1
(g22
S".\xf0<\xee\xffg'B"
p6739
tp6740
Rp6741
ag1
(g22
S'\xe9\xa6\xb8\x82\xd3\x8e(B'
p6742
tp6743
Rp6744
ag1
(g22
S'\x17\xd9\xa8,\x1b\xef(B'
p6745
tp6746
Rp6747
ag1
(g22
S'\xa7\xf9D\x1aTh(B'
p6748
tp6749
Rp6750
a(lp6751
I2008
aI2009
aI2010
aI2011
aI2012
aI2013
aI2014
aI2015
aI2016
atp6752
a(g1
(g2
(S'S27'
p6753
I0
I1
tp6754
Rp6755
(I3
S'|'
p6756
NNNI27
I1
I0
tp6757
bS'Pacific island small states'
p6758
tp6759
Rp6760
g1
(g2
(S'S60'
p6761
I0
I1
tp6762
Rp6763
(I3
S'|'
p6764
NNNI60
I1
I0
tp6765
bS'Improved sanitation facilities (% of population with access)'
p6766
tp6767
Rp6768
(lp6769
g1
(g22
S'\x13\n\xcd\x8a\xa7\xb8\xeaA'
p6770
tp6771
Rp6772
ag1
(g22
S'\xfb\\\x1d>)b\xedA'
p6773
tp6774
Rp6775
ag1
(g22
S'\xed\xf5\xd5j\xbdE\xefA'
p6776
tp6777
Rp6778
ag1
(g22
S'\x9aB\x91\x9b-@\xf3A'
p6779
tp6780
Rp6781
ag1
(g22
S'\x87PN\x1d[\xcd\xecA'
p6782
tp6783
Rp6784
ag1
(g22
S'\xafB\xf7\xa7\x1cW\xf1A'
p6785
tp6786
Rp6787
ag1
(g22
S"\xc1J \xef'8\xf4A"
p6788
tp6789
Rp6790
ag1
(g22
S'%/\xf0\xee$\xc6\xf4A'
p6791
tp6792
Rp6793
ag1
(g22
S'\xdfC\x94\xd1\xa1\x1d\xf6A'
p6794
tp6795
Rp6796
a(lp6797
I2008
aI2009
aI2010
aI2011
aI2012
aI2013
aI2014
aI2015
aI2016
atp6798
a(g1
(g2
(S'S8'
p6799
I0
I1
tp6800
Rp6801
(I3
S'|'
p6802
NNNI8
I1
I0
tp6803
bS'Pakistan'
p6804
tp6805
Rp6806
g1
(g2
(S'S60'
p6807
I0
I1
tp6808
Rp6809
(I3
S'|'
p6810
NNNI60
I1
I0
tp6811
bS'Improved sanitation facilities (% of population with access)'
p6812
tp6813
Rp6814
(lp6815
g1
(g22
S'\x00\x00\x00\xda\x897\x1eB'
p6816
tp6817
Rp6818
ag1
(g22
S'\x00\x00\x00\xc2[4"B'
p6819
tp6820
Rp6821
ag1
(g22
S'\x00\x00\xc0\xe8\xb2\xe0#B'
p6822
tp6823
Rp6824
ag1
(g22
S'\x00\x00\x00=.\xef(B'
p6825
tp6826
Rp6827
ag1
(g22
S'\x00\x00\xe0\xb9\xadU"B'
p6828
tp6829
Rp6830
ag1
(g22
S'\x00\x00\x80\xea\x7fo$B'
p6831
tp6832
Rp6833
ag1
(g22
S"\x00\x00\xdc\xe2c\xac'B"
p6834
tp6835
Rp6836
ag1
(g22
S'\xe7=Mk5\x9f(B'
p6837
tp6838
Rp6839
ag1
(g22
S'\x00\x00\xe0aG\xf9(B'
p6840
tp6841
Rp6842
a(lp6843
I2008
aI2009
aI2010
aI2011
aI2012
aI2013
aI2014
aI2015
aI2016
atp6844
a(g1
(g2
(S'S5'
p6845
I0
I1
tp6846
Rp6847
(I3
S'|'
p6848
NNNI5
I1
I0
tp6849
bS'Palau'
p6850
tp6851
Rp6852
g1
(g2
(S'S60'
p6853
I0
I1
tp6854
Rp6855
(I3
S'|'
p6856
NNNI60
I1
I0
tp6857
bS'Improved sanitation facilities (% of population with access)'
p6858
tp6859
Rp6860
(lp6861
(lp6862
tp6863
a(g1
(g2
(S'S6'
p6864
I0
I1
tp6865
Rp6866
(I3
S'|'
p6867
NNNI6
I1
I0
tp6868
bS'Panama'
p6869
tp6870
Rp6871
g1
(g2
(S'S60'
p6872
I0
I1
tp6873
Rp6874
(I3
S'|'
p6875
NNNI60
I1
I0
tp6876
bS'Improved sanitation facilities (% of population with access)'
p6877
tp6878
Rp6879
(lp6880
g1
(g22
S'\x00\x00\x00\xc4\x9d\xfe\x07B'
p6881
tp6882
Rp6883
ag1
(g22
S'\x00\x00\x000~\x18\x0bB'
p6884
tp6885
Rp6886
ag1
(g22
S'\x00\x00\x80\x87\x1b\x90\x10B'
p6887
tp6888
Rp6889
ag1
(g22
S'\x00\x00\x80\xc5C\xc2\x13B'
p6890
tp6891
Rp6892
ag1
(g22
S'\x00\x00\x80}\xb2\xfc\x11B'
p6893
tp6894
Rp6895
ag1
(g22
S'\x00\x00\x00\xe4\xf6\x1d\x16B'
p6896
tp6897
Rp6898
ag1
(g22
S'\x00\x00\x00i\xba\xf0\x1dB'
p6899
tp6900
Rp6901
ag1
(g22
S'\x00\x00\x00Q*V\x1fB'
p6902
tp6903
Rp6904
ag1
(g22
S'\x00\x00\x80\x1d\xad\xea\x1fB'
p6905
tp6906
Rp6907
a(lp6908
I2008
aI2009
aI2010
aI2011
aI2012
aI2013
aI2014
aI2015
aI2016
atp6909
a(g1
(g2
(S'S16'
p6910
I0
I1
tp6911
Rp6912
(I3
S'|'
p6913
NNNI16
I1
I0
tp6914
bS'Papua New Guinea'
p6915
tp6916
Rp6917
g1
(g2
(S'S60'
p6918
I0
I1
tp6919
Rp6920
(I3
S'|'
p6921
NNNI60
I1
I0
tp6922
bS'Improved sanitation facilities (% of population with access)'
p6923
tp6924
Rp6925
(lp6926
g1
(g22
S'"7\xaaD\x8a\x17\xe9A'
p6927
tp6928
Rp6929
ag1
(g22
S'\x1d\x94LfW\x9f\xf0A'
p6930
tp6931
Rp6932
ag1
(g22
S'N\xffoB\x80\x1c\xf4A'
p6933
tp6934
Rp6935
ag1
(g22
S'\x85\xfc\xf7\xb7 H\xf5A'
p6936
tp6937
Rp6938
ag1
(g22
S'\x01\xc1\x17vp\x0c\xf4A'
p6939
tp6940
Rp6941
ag1
(g22
S'Z\x8d\xc7\xf0\x11\xc7\xf9A'
p6942
tp6943
Rp6944
ag1
(g22
S'!\xea\xd3\xc9\xee\n\xfdA'
p6945
tp6946
Rp6947
ag1
(g22
S'&\xf6\n\xb9\tF\x01B'
p6948
tp6949
Rp6950
a(lp6951
I2008
aI2009
aI2010
aI2011
aI2012
aI2013
aI2014
aI2015
atp6952
a(g1
(g2
(S'S8'
p6953
I0
I1
tp6954
Rp6955
(I3
S'|'
p6956
NNNI8
I1
I0
tp6957
bS'Paraguay'
p6958
tp6959
Rp6960
g1
(g2
(S'S60'
p6961
I0
I1
tp6962
Rp6963
(I3
S'|'
p6964
NNNI60
I1
I0
tp6965
bS'Improved sanitation facilities (% of population with access)'
p6966
tp6967
Rp6968
(lp6969
g1
(g22
S'1_ \x94\x80c\xf4A'
p6970
tp6971
Rp6972
ag1
(g22
S'G\x83\x84)~\xf7\xf8A'
p6973
tp6974
Rp6975
ag1
(g22
S'\xaf|\xe7M\xe4-\xfcA'
p6976
tp6977
Rp6978
ag1
(g22
S'7\x1aD\x81\xe7\x92\x03B'
p6979
tp6980
Rp6981
ag1
(g22
S'\\f\x05\xa7\x1fa\xffA'
p6982
tp6983
Rp6984
ag1
(g22
S'\x9c3=\xe3\x95\xe2\x05B'
p6985
tp6986
Rp6987
ag1
(g22
S'>\xe8\xb5\xb0U\xf7\tB'
p6988
tp6989
Rp6990
ag1
(g22
S'N\xe2\x99\xc8L\xe9\x08B'
p6991
tp6992
Rp6993
ag1
(g22
S'\xb5\xa6\xc0\x88p\xf6\nB'
p6994
tp6995
Rp6996
a(lp6997
I2008
aI2009
aI2010
aI2011
aI2012
aI2013
aI2014
aI2015
aI2016
atp6998
a(g1
(g2
(S'S4'
p6999
I0
I1
tp7000
Rp7001
(I3
S'|'
p7002
NNNI4
I1
I0
tp7003
bS'Peru'
p7004
tp7005
Rp7006
g1
(g2
(S'S60'
p7007
I0
I1
tp7008
Rp7009
(I3
S'|'
p7010
NNNI60
I1
I0
tp7011
bS'Improved sanitation facilities (% of population with access)'
p7012
tp7013
Rp7014
(lp7015
g1
(g22
S'\xe6.\x82\x15\xbb6\x13B'
p7016
tp7017
Rp7018
ag1
(g22
S'i\xef&\xcb@\xab\x18B'
p7019
tp7020
Rp7021
ag1
(g22
S'g\xd5\xf1\x03\xd4@\x1fB'
p7022
tp7023
Rp7024
ag1
(g22
S'H\xd0\xea\xacd\xad$B'
p7025
tp7026
Rp7027
ag1
(g22
S'\xfc\xb8\x0c\xeeM} B'
p7028
tp7029
Rp7030
ag1
(g22
S')|\xb7\x83V\xca%B'
p7031
tp7032
Rp7033
ag1
(g22
S"\x8b]\xb0j'\xbe*B"
p7034
tp7035
Rp7036
ag1
(g22
S'\x1a\xe0X\xfe\xf7\x89,B'
p7037
tp7038
Rp7039
ag1
(g22
S'f\xd7\x9fo\x17l,B'
p7040
tp7041
Rp7042
a(lp7043
I2008
aI2009
aI2010
aI2011
aI2012
aI2013
aI2014
aI2015
aI2016
atp7044
a(g1
(g2
(S'S11'
p7045
I0
I1
tp7046
Rp7047
(I3
S'|'
p7048
NNNI11
I1
I0
tp7049
bS'Philippines'
p7050
tp7051
Rp7052
g1
(g2
(S'S60'
p7053
I0
I1
tp7054
Rp7055
(I3
S'|'
p7056
NNNI60
I1
I0
tp7057
bS'Improved sanitation facilities (% of population with access)'
p7058
tp7059
Rp7060
(lp7061
g1
(g22
S'\xb8\xcf7\xe9\xdal&B'
p7062
tp7063
Rp7064
ag1
(g22
S'}\xf0\x84Q\xd27)B'
p7065
tp7066
Rp7067
ag1
(g22
S'\x90\xe0\xde\xa0\xf3\xf8+B'
p7068
tp7069
Rp7070
ag1
(g22
S'\xdc\xc7\xc8g\xfd^0B'
p7071
tp7072
Rp7073
ag1
(g22
S'\xcd\xbb*\xe7\xbd\xe4*B'
p7074
tp7075
Rp7076
ag1
(g22
S'\xc6\x8d\x1d\x99(\xaf0B'
p7077
tp7078
Rp7079
ag1
(g22
S'[\x12\xa3C;\x182B'
p7080
tp7081
Rp7082
ag1
(g22
S'\xf6x\xfa\x901g4B'
p7083
tp7084
Rp7085
ag1
(g22
S'\xed>;\xdb\xc8\xff3B'
p7086
tp7087
Rp7088
a(lp7089
I2008
aI2009
aI2010
aI2011
aI2012
aI2013
aI2014
aI2015
aI2016
atp7090
a(g1
(g2
(S'S6'
p7091
I0
I1
tp7092
Rp7093
(I3
S'|'
p7094
NNNI6
I1
I0
tp7095
bS'Poland'
p7096
tp7097
Rp7098
g1
(g2
(S'S60'
p7099
I0
I1
tp7100
Rp7101
(I3
S'|'
p7102
NNNI60
I1
I0
tp7103
bS'Improved sanitation facilities (% of population with access)'
p7104
tp7105
Rp7106
(lp7107
g1
(g22
S'\x00\x00\xc0:\x1e\x00>B'
p7108
tp7109
Rp7110
ag1
(g22
S'\x00\x00\x00}\x8f\x08CB'
p7111
tp7112
Rp7113
ag1
(g22
S'\x00\x00\xa0R\x08\nIB'
p7114
tp7115
Rp7116
ag1
(g22
S'\x00\x00\xa0\xaf\xfe\xb0NB'
p7117
tp7118
Rp7119
ag1
(g22
S'\x00\x00\xa0&\x1d\xf1FB'
p7120
tp7121
Rp7122
ag1
(g22
S'\x00\x00\x80\x9a\xe4\xeaJB'
p7123
tp7124
Rp7125
ag1
(g22
S'\x00\x00\x80\x1b\x99$OB'
p7126
tp7127
Rp7128
ag1
(g22
S'\x00\x00`\xa1\x0b\xa3MB'
p7129
tp7130
Rp7131
ag1
(g22
S'\x00\x00@^\xe6\xcfNB'
p7132
tp7133
Rp7134
a(lp7135
I2008
aI2009
aI2010
aI2011
aI2012
aI2013
aI2014
aI2015
aI2016
atp7136
a(g1
(g2
(S'S8'
p7137
I0
I1
tp7138
Rp7139
(I3
S'|'
p7140
NNNI8
I1
I0
tp7141
bS'Portugal'
p7142
tp7143
Rp7144
g1
(g2
(S'S60'
p7145
I0
I1
tp7146
Rp7147
(I3
S'|'
p7148
NNNI60
I1
I0
tp7149
bS'Improved sanitation facilities (% of population with access)'
p7150
tp7151
Rp7152
(lp7153
g1
(g22
S'-Riy\x02\xde3B'
p7154
tp7155
Rp7156
ag1
(g22
S'\xbc\xf4\x8bc|\x8b7B'
p7157
tp7158
Rp7159
ag1
(g22
S'\x00 N\x8cV\xda;B'
p7160
tp7161
Rp7162
ag1
(g22
S'{4X\x13\x9c\xef?B'
p7163
tp7164
Rp7165
ag1
(g22
S'm\xc7\x19F\x88\xe08B'
p7166
tp7167
Rp7168
ag1
(g22
S'\xba\xe9M\xe5\xfc\xad:B'
p7169
tp7170
Rp7171
ag1
(g22
S'\x0cbdv\xa3\x1a<B'
p7172
tp7173
Rp7174
ag1
(g22
S'\x89\x81\xde\xed\x01\x877B'
p7175
tp7176
Rp7177
ag1
(g22
S'-r\xe8\xa9m\x178B'
p7178
tp7179
Rp7180
a(lp7181
I2008
aI2009
aI2010
aI2011
aI2012
aI2013
aI2014
aI2015
aI2016
atp7182
a(g1
(g2
(S'S11'
p7183
I0
I1
tp7184
Rp7185
(I3
S'|'
p7186
NNNI11
I1
I0
tp7187
bS'Puerto Rico'
p7188
tp7189
Rp7190
g1
(g2
(S'S60'
p7191
I0
I1
tp7192
Rp7193
(I3
S'|'
p7194
NNNI60
I1
I0
tp7195
bS'Improved sanitation facilities (% of population with access)'
p7196
tp7197
Rp7198
(lp7199
(lp7200
tp7201
a(g1
(g2
(S'S5'
p7202
I0
I1
tp7203
Rp7204
(I3
S'|'
p7205
NNNI5
I1
I0
tp7206
bS'Qatar'
p7207
tp7208
Rp7209
g1
(g2
(S'S60'
p7210
I0
I1
tp7211
Rp7212
(I3
S'|'
p7213
NNNI60
I1
I0
tp7214
bS'Improved sanitation facilities (% of population with access)'
p7215
tp7216
Rp7217
(lp7218
g1
(g22
S'\xb2]4\xe7\x99q-B'
p7219
tp7220
Rp7221
ag1
(g22
S'\xeeZ\xef\xf9/\x131B'
p7222
tp7223
Rp7224
ag1
(g22
S'\xbb\xc7\xfb\x00\xe0\xd91B'
p7225
tp7226
Rp7227
a(lp7228
I2014
aI2015
aI2016
atp7229
a(g1
(g2
(S'S7'
p7230
I0
I1
tp7231
Rp7232
(I3
S'|'
p7233
NNNI7
I1
I0
tp7234
bS'Romania'
p7235
tp7236
Rp7237
g1
(g2
(S'S60'
p7238
I0
I1
tp7239
Rp7240
(I3
S'|'
p7241
NNNI60
I1
I0
tp7242
bS'Improved sanitation facilities (% of population with access)'
p7243
tp7244
Rp7245
(lp7246
g1
(g22
S'\x00\x00`&\xe6\xfe!B'
p7247
tp7248
Rp7249
ag1
(g22
S"\x00\x00\xc0\x82\x8d\xd1'B"
p7250
tp7251
Rp7252
ag1
(g22
S'\x00\x00\xc0\x89J\xbe1B'
p7253
tp7254
Rp7255
ag1
(g22
S'\x00\x00\xc0[\x12\x805B'
p7256
tp7257
Rp7258
ag1
(g22
S'\x00\x00\x80\xe6C\xda+B'
p7259
tp7260
Rp7261
ag1
(g22
S'\x00\x00\x00#\xf8./B'
p7262
tp7263
Rp7264
ag1
(g22
S'\x00\x00@\xcc7?3B'
p7265
tp7266
Rp7267
ag1
(g22
S'\x00\x00\x807\xf8\x152B'
p7268
tp7269
Rp7270
ag1
(g22
S'\x00\x00\x00\x81\xf4{3B'
p7271
tp7272
Rp7273
a(lp7274
I2008
aI2009
aI2010
aI2011
aI2012
aI2013
aI2014
aI2015
aI2016
atp7275
a(g1
(g2
(S'S18'
p7276
I0
I1
tp7277
Rp7278
(I3
S'|'
p7279
NNNI18
I1
I0
tp7280
bS'Russian Federation'
p7281
tp7282
Rp7283
g1
(g2
(S'S60'
p7284
I0
I1
tp7285
Rp7286
(I3
S'|'
p7287
NNNI60
I1
I0
tp7288
bS'Improved sanitation facilities (% of population with access)'
p7289
tp7290
Rp7291
(lp7292
g1
(g22
S'F\xe6\x00\xd6\xebQGB'
p7293
tp7294
Rp7295
ag1
(g22
S'\xaa\x91\xc0\x9e\t4OB'
p7296
tp7297
Rp7298
ag1
(g22
S'{\x14(g\xb7\xd7TB'
p7299
tp7300
Rp7301
ag1
(g22
S'\xa4\x88\xae\x84\r\x9f[B'
p7302
tp7303
Rp7304
ag1
(g22
S'\xb8\xd6W\x089\xa7RB'
p7305
tp7306
Rp7307
ag1
(g22
S'F>30\xc2\xa3WB'
p7308
tp7309
Rp7310
ag1
(g22
S'\x98\x1e\x84\xb5T\xde]B'
p7311
tp7312
Rp7313
ag1
(g22
S'\xa6Ksp2M`B'
p7314
tp7315
Rp7316
ag1
(g22
S'\xac \xe3\xcf\x037aB'
p7317
tp7318
Rp7319
a(lp7320
I2008
aI2009
aI2010
aI2011
aI2012
aI2013
aI2014
aI2015
aI2016
atp7321
a(g1
(g2
(S'S6'
p7322
I0
I1
tp7323
Rp7324
(I3
S'|'
p7325
NNNI6
I1
I0
tp7326
bS'Rwanda'
p7327
tp7328
Rp7329
g1
(g2
(S'S60'
p7330
I0
I1
tp7331
Rp7332
(I3
S'|'
p7333
NNNI60
I1
I0
tp7334
bS'Improved sanitation facilities (% of population with access)'
p7335
tp7336
Rp7337
(lp7338
g1
(g22
S'7Rz\xb1\xf7\xa4\xc4A'
p7339
tp7340
Rp7341
ag1
(g22
S'\x1a\x16\t\x8c\xd1\xb1\xc9A'
p7342
tp7343
Rp7344
ag1
(g22
S'o*\x0e\x89\xc7\xcb\xceA'
p7345
tp7346
Rp7347
ag1
(g22
S'\x06*\x7f(\xc8&\xd6A'
p7348
tp7349
Rp7350
ag1
(g22
S'\xb5O)\x88\xbb\xc0\xd7A'
p7351
tp7352
Rp7353
ag1
(g22
S'\xb4Y3~\x01z\xd9A'
p7354
tp7355
Rp7356
ag1
(g22
S'\xa2\x979\x07\x8b\x11\xe1A'
p7357
tp7358
Rp7359
ag1
(g22
S'9\xd6\x85\xa8\x14&\xe3A'
p7360
tp7361
Rp7362
ag1
(g22
S'\xf8\xaa\xf1\xda[{\xe3A'
p7363
tp7364
Rp7365
a(lp7366
I2008
aI2009
aI2010
aI2011
aI2012
aI2013
aI2014
aI2015
aI2016
atp7367
a(g1
(g2
(S'S5'
p7368
I0
I1
tp7369
Rp7370
(I3
S'|'
p7371
NNNI5
I1
I0
tp7372
bS'Samoa'
p7373
tp7374
Rp7375
g1
(g2
(S'S60'
p7376
I0
I1
tp7377
Rp7378
(I3
S'|'
p7379
NNNI60
I1
I0
tp7380
bS'Improved sanitation facilities (% of population with access)'
p7381
tp7382
Rp7383
(lp7384
g1
(g22
S'\xadN\x12p\x02\xe4\xb1A'
p7385
tp7386
Rp7387
ag1
(g22
S'*\xc8_\xcf\x87\x98\xb3A'
p7388
tp7389
Rp7390
ag1
(g22
S'6;\xae\x9aM\x86\xb4A'
p7391
tp7392
Rp7393
ag1
(g22
S'\xde\xc66y\xefu\xb6A'
p7394
tp7395
Rp7396
ag1
(g22
S'VF\xd7]\xa1\x0f\xb3A'
p7397
tp7398
Rp7399
ag1
(g22
S'\xceo,\x06\xb8\x07\xb7A'
p7400
tp7401
Rp7402
ag1
(g22
S'\xd1v\x80\xa0=\xe1\xb9A'
p7403
tp7404
Rp7405
ag1
(g22
S'b\x83\x91\xf3\xc2\x0e\xbbA'
p7406
tp7407
Rp7408
ag1
(g22
S'\xbd\xc8x\xbd\x07\xab\xbbA'
p7409
tp7410
Rp7411
a(lp7412
I2008
aI2009
aI2010
aI2011
aI2012
aI2013
aI2014
aI2015
aI2016
atp7413
a(g1
(g2
(S'S10'
p7414
I0
I1
tp7415
Rp7416
(I3
S'|'
p7417
NNNI10
I1
I0
tp7418
bS'San Marino'
p7419
tp7420
Rp7421
g1
(g2
(S'S60'
p7422
I0
I1
tp7423
Rp7424
(I3
S'|'
p7425
NNNI60
I1
I0
tp7426
bS'Improved sanitation facilities (% of population with access)'
p7427
tp7428
Rp7429
(lp7430
(lp7431
tp7432
a(g1
(g2
(S'S21'
p7433
I0
I1
tp7434
Rp7435
(I3
S'|'
p7436
NNNI21
I1
I0
tp7437
bS'Sao Tome and Principe'
p7438
tp7439
Rp7440
g1
(g2
(S'S60'
p7441
I0
I1
tp7442
Rp7443
(I3
S'|'
p7444
NNNI60
I1
I0
tp7445
bS'Improved sanitation facilities (% of population with access)'
p7446
tp7447
Rp7448
(lp7449
g1
(g22
S'\n\x18\xf8\x80\x8er\x8bA'
p7450
tp7451
Rp7452
ag1
(g22
S'\x12\xdbM\xf2`\x1a\x93A'
p7453
tp7454
Rp7455
ag1
(g22
S'\x1a#\x80`Yv\x94A'
p7456
tp7457
Rp7458
ag1
(g22
S'#\xf6\xf9q\xdd\x8f\x9bA'
p7459
tp7460
Rp7461
ag1
(g22
S'\x82T\nl\x02\xf5\x98A'
p7462
tp7463
Rp7464
ag1
(g22
S'E\xa0Z\xcc\x07F\x9dA'
p7465
tp7466
Rp7467
ag1
(g22
S'\xb49\xa6f\x88\xce\xa1A'
p7468
tp7469
Rp7470
ag1
(g22
S'\x04\xc6\xaa\xfbB\x86\xa1A'
p7471
tp7472
Rp7473
ag1
(g22
S'o\x83\n\xf0\xb6\t\xa5A'
p7474
tp7475
Rp7476
a(lp7477
I2008
aI2009
aI2010
aI2011
aI2012
aI2013
aI2014
aI2015
aI2016
atp7478
a(g1
(g2
(S'S12'
p7479
I0
I1
tp7480
Rp7481
(I3
S'|'
p7482
NNNI12
I1
I0
tp7483
bS'Saudi Arabia'
p7484
tp7485
Rp7486
g1
(g2
(S'S60'
p7487
I0
I1
tp7488
Rp7489
(I3
S'|'
p7490
NNNI60
I1
I0
tp7491
bS'Improved sanitation facilities (% of population with access)'
p7492
tp7493
Rp7494
(lp7495
g1
(g22
S"\xffb*'\xff\x7f5B"
p7496
tp7497
Rp7498
ag1
(g22
S'1\xa8\xd2\x93\xfe\xf8;B'
p7499
tp7500
Rp7501
ag1
(g22
S'R8\xa1\xa5^\xfaAB'
p7502
tp7503
Rp7504
ag1
(g22
S'\xd5\x18fP,\x01FB'
p7505
tp7506
Rp7507
ag1
(g22
S'\xa0\xaa\n>5)DB'
p7508
tp7509
Rp7510
ag1
(g22
S'?U5\xd6I\x93EB'
p7511
tp7512
Rp7513
ag1
(g22
S'?U\xc9w\xa38HB'
p7514
tp7515
Rp7516
ag1
(g22
S'\xe7\xeb\x8b\xa2\xe8\x86JB'
p7517
tp7518
Rp7519
ag1
(g22
S')<\xec{\x8e\x1dLB'
p7520
tp7521
Rp7522
a(lp7523
I2008
aI2009
aI2010
aI2011
aI2012
aI2013
aI2014
aI2015
aI2016
atp7524
a(g1
(g2
(S'S7'
p7525
I0
I1
tp7526
Rp7527
(I3
S'|'
p7528
NNNI7
I1
I0
tp7529
bS'Senegal'
p7530
tp7531
Rp7532
g1
(g2
(S'S60'
p7533
I0
I1
tp7534
Rp7535
(I3
S'|'
p7536
NNNI60
I1
I0
tp7537
bS'Improved sanitation facilities (% of population with access)'
p7538
tp7539
Rp7540
(lp7541
g1
(g22
S'7\x8e\xd7"\xdc\xbc\xedA'
p7542
tp7543
Rp7544
ag1
(g22
S'\xde\x93>6\xed\xd7\xefA'
p7545
tp7546
Rp7547
ag1
(g22
S',\x1fE\xf2\xd1$\xf5A'
p7548
tp7549
Rp7550
ag1
(g22
S'RD\x860<d\xfbA'
p7551
tp7552
Rp7553
ag1
(g22
S'u\x0es\x9f\xde\xe8\xf4A'
p7554
tp7555
Rp7556
ag1
(g22
S'@\xb0\x83\x0eY\xb3\xf4A'
p7557
tp7558
Rp7559
ag1
(g22
S'\xe6\xd7D\x0fd\xf6\xf9A'
p7560
tp7561
Rp7562
a(lp7563
I2008
aI2009
aI2010
aI2011
aI2012
aI2013
aI2014
atp7564
a(g1
(g2
(S'S6'
p7565
I0
I1
tp7566
Rp7567
(I3
S'|'
p7568
NNNI6
I1
I0
tp7569
bS'Serbia'
p7570
tp7571
Rp7572
g1
(g2
(S'S60'
p7573
I0
I1
tp7574
Rp7575
(I3
S'|'
p7576
NNNI60
I1
I0
tp7577
bS'Improved sanitation facilities (% of population with access)'
p7578
tp7579
Rp7580
(lp7581
g1
(g22
S'\x16\xea\x05\x80*\xcb\x15B'
p7582
tp7583
Rp7584
ag1
(g22
S'NQL\x0c>\xdf\x1bB'
p7585
tp7586
Rp7587
ag1
(g22
S'h\xe2\x0eKd\xf3\x12B'
p7588
tp7589
Rp7590
ag1
(g22
S'\xa2\xb4\xa0i\x07s\x13B'
p7591
tp7592
Rp7593
ag1
(g22
S'E\xd8\xc1\xaes\x12\x17B'
p7594
tp7595
Rp7596
ag1
(g22
S'C\\\x8f\xb3-s\x16B'
p7597
tp7598
Rp7599
ag1
(g22
S'<\xbd\xef\xb7\xa7\x8b\x18B'
p7600
tp7601
Rp7602
a(lp7603
I2010
aI2011
aI2012
aI2013
aI2014
aI2015
aI2016
atp7604
a(g1
(g2
(S'S10'
p7605
I0
I1
tp7606
Rp7607
(I3
S'|'
p7608
NNNI10
I1
I0
tp7609
bS'Seychelles'
p7610
tp7611
Rp7612
g1
(g2
(S'S60'
p7613
I0
I1
tp7614
Rp7615
(I3
S'|'
p7616
NNNI60
I1
I0
tp7617
bS'Improved sanitation facilities (% of population with access)'
p7618
tp7619
Rp7620
(lp7621
g1
(g22
S'\xa8\x1b\xb2S\xbd\xdb\xcbA'
p7622
tp7623
Rp7624
ag1
(g22
S'\x02\xd9\x87U[\xf2\xceA'
p7625
tp7626
Rp7627
ag1
(g22
S'\xe3\xfc1\xa2\x83}\xceA'
p7628
tp7629
Rp7630
ag1
(g22
S'\x07B*a\xc2Y\xd1A'
p7631
tp7632
Rp7633
ag1
(g22
S'\xc2\xa3\xf5\xc2%J\xcfA'
p7634
tp7635
Rp7636
ag1
(g22
S'\xd2\xe3{7D\xdf\xcfA'
p7637
tp7638
Rp7639
ag1
(g22
S'\xcaT\x17\xda\xc9\xc7\xd2A'
p7640
tp7641
Rp7642
ag1
(g22
S'a\x89wg\xe9\xb6\xd2A'
p7643
tp7644
Rp7645
ag1
(g22
S'\xc8\xcdX\xe8w\xec\xd3A'
p7646
tp7647
Rp7648
a(lp7649
I2008
aI2009
aI2010
aI2011
aI2012
aI2013
aI2014
aI2015
aI2016
atp7650
a(g1
(g2
(S'S12'
p7651
I0
I1
tp7652
Rp7653
(I3
S'|'
p7654
NNNI12
I1
I0
tp7655
bS'Sierra Leone'
p7656
tp7657
Rp7658
g1
(g2
(S'S60'
p7659
I0
I1
tp7660
Rp7661
(I3
S'|'
p7662
NNNI60
I1
I0
tp7663
bS'Improved sanitation facilities (% of population with access)'
p7664
tp7665
Rp7666
(lp7667
g1
(g22
S'WAXl\xc1[\xbeA'
p7668
tp7669
Rp7670
ag1
(g22
S'v8\x9a?\xbf\t\xbdA'
p7671
tp7672
Rp7673
ag1
(g22
S'\x8f\x1c\xddO\x9f\xfe\xc2A'
p7674
tp7675
Rp7676
ag1
(g22
S'\xd5\x91e!\x15g\xc4A'
p7677
tp7678
Rp7679
ag1
(g22
S'\x80\x10W\xdf\x1d\xbd\xc7A'
p7680
tp7681
Rp7682
ag1
(g22
S'H\x8a\xd6\x82\xe0\xbf\xd1A'
p7683
tp7684
Rp7685
ag1
(g22
S'\x9f\xcdl\xae33\xe4A'
p7686
tp7687
Rp7688
ag1
(g22
S'^h%\x82w\t\xe2A'
p7689
tp7690
Rp7691
ag1
(g22
S't\xd2\xa1B\xf0\xea\xe4A'
p7692
tp7693
Rp7694
a(lp7695
I2008
aI2009
aI2010
aI2011
aI2012
aI2013
aI2014
aI2015
aI2016
atp7696
a(g1
(g2
(S'S9'
p7697
I0
I1
tp7698
Rp7699
(I3
S'|'
p7700
NNNI9
I1
I0
tp7701
bS'Singapore'
p7702
tp7703
Rp7704
g1
(g2
(S'S60'
p7705
I0
I1
tp7706
Rp7707
(I3
S'|'
p7708
NNNI60
I1
I0
tp7709
bS'Improved sanitation facilities (% of population with access)'
p7710
tp7711
Rp7712
(lp7713
g1
(g22
S'\xf8\xb3r7\xdf\xbePB'
p7714
tp7715
Rp7716
ag1
(g22
S'#\x8b\x1a\xa9\xfd\xeaSB'
p7717
tp7718
Rp7719
ag1
(g22
S'\xba\xc9\x8b\xd1\xec\xfeVB'
p7720
tp7721
Rp7722
ag1
(g22
S'\xf0\xafS=|\xb9ZB'
p7723
tp7724
Rp7725
ag1
(g22
S'\x98\xdep$\xa9KVB'
p7726
tp7727
Rp7728
ag1
(g22
S'b8%\xc18\x82[B'
p7729
tp7730
Rp7731
ag1
(g22
S'/\xa9\xb2k\n\x1b`B'
p7732
tp7733
Rp7734
ag1
(g22
S'->\x15\xe2\x18\xba`B'
p7735
tp7736
Rp7737
ag1
(g22
S'\xf0#\xe2\xb0f\x03aB'
p7738
tp7739
Rp7740
a(lp7741
I2008
aI2009
aI2010
aI2011
aI2012
aI2013
aI2014
aI2015
aI2016
atp7742
a(g1
(g2
(S'S25'
p7743
I0
I1
tp7744
Rp7745
(I3
S'|'
p7746
NNNI25
I1
I0
tp7747
bS'Sint Maarten (Dutch part)'
p7748
tp7749
Rp7750
g1
(g2
(S'S60'
p7751
I0
I1
tp7752
Rp7753
(I3
S'|'
p7754
NNNI60
I1
I0
tp7755
bS'Improved sanitation facilities (% of population with access)'
p7756
tp7757
Rp7758
(lp7759
(lp7760
tp7761
a(g1
(g2
(S'S15'
p7762
I0
I1
tp7763
Rp7764
(I3
S'|'
p7765
NNNI15
I1
I0
tp7766
bS'Slovak Republic'
p7767
tp7768
Rp7769
g1
(g2
(S'S60'
p7770
I0
I1
tp7771
Rp7772
(I3
S'|'
p7773
NNNI60
I1
I0
tp7774
bS'Improved sanitation facilities (% of population with access)'
p7775
tp7776
Rp7777
(lp7778
g1
(g22
S'U03WKy#B'
p7779
tp7780
Rp7781
ag1
(g22
S'\xdchg\x81\xc1\xa8(B'
p7782
tp7783
Rp7784
ag1
(g22
S'\xba\x9a\x0b\xd0\x0c~0B'
p7785
tp7786
Rp7787
ag1
(g22
S'\xffQ*\xf7\xa8C4B'
p7788
tp7789
Rp7790
ag1
(g22
S'\x1c\x1c^\xe8E\x13/B'
p7791
tp7792
Rp7793
ag1
(g22
S'\xfa\xfdM\xb0\xa9\xac1B'
p7794
tp7795
Rp7796
ag1
(g22
S'7\x99\xc0e\x89\x1b5B'
p7797
tp7798
Rp7799
ag1
(g22
S'v1K\xb7L\x8f4B'
p7800
tp7801
Rp7802
ag1
(g22
S'\x1c\x8bx\xe7\x18\xa55B'
p7803
tp7804
Rp7805
a(lp7806
I2008
aI2009
aI2010
aI2011
aI2012
aI2013
aI2014
aI2015
aI2016
atp7807
a(g1
(g2
(S'S8'
p7808
I0
I1
tp7809
Rp7810
(I3
S'|'
p7811
NNNI8
I1
I0
tp7812
bS'Slovenia'
p7813
tp7814
Rp7815
g1
(g2
(S'S60'
p7816
I0
I1
tp7817
Rp7818
(I3
S'|'
p7819
NNNI60
I1
I0
tp7820
bS'Improved sanitation facilities (% of population with access)'
p7821
tp7822
Rp7823
(lp7824
g1
(g22
S'\x00\x00\x00\xf6\xfd\xc8\x15B'
p7825
tp7826
Rp7827
ag1
(g22
S'\xf2\x01*\x97\xec\xca\x19B'
p7828
tp7829
Rp7830
ag1
(g22
S'oa\xca9\xc9\xe9 B'
p7831
tp7832
Rp7833
ag1
(g22
S'\x0e\xaf\x15\xdc\xa8w#B'
p7834
tp7835
Rp7836
ag1
(g22
S'V\xdf\xa0x\xa6\xe6\x1bB'
p7837
tp7838
Rp7839
ag1
(g22
S'\x1b\xcd\x9a\xf0?\xae\x1dB'
p7840
tp7841
Rp7842
ag1
(g22
S'*z\xc7^B\x8b!B'
p7843
tp7844
Rp7845
ag1
(g22
S'\x02<,R+\x80\x1fB'
p7846
tp7847
Rp7848
ag1
(g22
S'\xbf\xcen\xc3\t\xd8\x1fB'
p7849
tp7850
Rp7851
a(lp7852
I2008
aI2009
aI2010
aI2011
aI2012
aI2013
aI2014
aI2015
aI2016
atp7853
a(g1
(g2
(S'S12'
p7854
I0
I1
tp7855
Rp7856
(I3
S'|'
p7857
NNNI12
I1
I0
tp7858
bS'Small states'
p7859
tp7860
Rp7861
g1
(g2
(S'S60'
p7862
I0
I1
tp7863
Rp7864
(I3
S'|'
p7865
NNNI60
I1
I0
tp7866
bS'Improved sanitation facilities (% of population with access)'
p7867
tp7868
Rp7869
(lp7870
g1
(g22
S'\xfc\xd8\xdds\xcf\xe1*B'
p7871
tp7872
Rp7873
ag1
(g22
S'/\xce\xd8\x1e\x94\xd1-B'
p7874
tp7875
Rp7876
ag1
(g22
S'<\x8e`\x1dMS1B'
p7877
tp7878
Rp7879
ag1
(g22
S'\xe9\xd7 u+\x114B'
p7880
tp7881
Rp7882
ag1
(g22
S'\x02,\xe6\xa5\x8a\x810B'
p7883
tp7884
Rp7885
ag1
(g22
S'\x10\xa8\x85}V@3B'
p7886
tp7887
Rp7888
ag1
(g22
S'5\xfegC\x87u7B'
p7889
tp7890
Rp7891
ag1
(g22
S"'\x91\xa9)O\x1f8B"
p7892
tp7893
Rp7894
ag1
(g22
S'\xcba8\xee\xf1\xcc7B'
p7895
tp7896
Rp7897
a(lp7898
I2008
aI2009
aI2010
aI2011
aI2012
aI2013
aI2014
aI2015
aI2016
atp7899
a(g1
(g2
(S'S15'
p7900
I0
I1
tp7901
Rp7902
(I3
S'|'
p7903
NNNI15
I1
I0
tp7904
bS'Solomon Islands'
p7905
tp7906
Rp7907
g1
(g2
(S'S60'
p7908
I0
I1
tp7909
Rp7910
(I3
S'|'
p7911
NNNI60
I1
I0
tp7912
bS'Improved sanitation facilities (% of population with access)'
p7913
tp7914
Rp7915
(lp7916
g1
(g22
S'\xefY\xd7i\xd2\xd1\xadA'
p7917
tp7918
Rp7919
ag1
(g22
S'\xac\xc6b\xc9I\x8f\xb1A'
p7920
tp7921
Rp7922
ag1
(g22
S'Z\x9fNwAy\xb8A'
p7923
tp7924
Rp7925
ag1
(g22
S'{k\x18|NJ\xbeA'
p7926
tp7927
Rp7928
ag1
(g22
S'yy\x86\x8e\xa2X\xbdA'
p7929
tp7930
Rp7931
ag1
(g22
S'\x85\xb0\x0c\x10\xa4\x92\xc4A'
p7932
tp7933
Rp7934
ag1
(g22
S'shg\xc9\xad\xf3\xc6A'
p7935
tp7936
Rp7937
ag1
(g22
S'\xa6\xf0\xfa\x1e\x0e\xff\xc5A'
p7938
tp7939
Rp7940
ag1
(g22
S'\xec\xc0\xbf\x1b\xbdE\xc6A'
p7941
tp7942
Rp7943
a(lp7944
I2008
aI2009
aI2010
aI2011
aI2012
aI2013
aI2014
aI2015
aI2016
atp7945
a(g1
(g2
(S'S7'
p7946
I0
I1
tp7947
Rp7948
(I3
S'|'
p7949
NNNI7
I1
I0
tp7950
bS'Somalia'
p7951
tp7952
Rp7953
g1
(g2
(S'S60'
p7954
I0
I1
tp7955
Rp7956
(I3
S'|'
p7957
NNNI60
I1
I0
tp7958
bS'Improved sanitation facilities (% of population with access)'
p7959
tp7960
Rp7961
(lp7962
(lp7963
tp7964
a(g1
(g2
(S'S12'
p7965
I0
I1
tp7966
Rp7967
(I3
S'|'
p7968
NNNI12
I1
I0
tp7969
bS'South Africa'
p7970
tp7971
Rp7972
g1
(g2
(S'S60'
p7973
I0
I1
tp7974
Rp7975
(I3
S'|'
p7976
NNNI60
I1
I0
tp7977
bS'Improved sanitation facilities (% of population with access)'
p7978
tp7979
Rp7980
(lp7981
g1
(g22
S'\xec\xaf\xde/\x97:2B'
p7982
tp7983
Rp7984
ag1
(g22
S'\xb2^\x8b\x8e\xed\x1e6B'
p7985
tp7986
Rp7987
ag1
(g22
S'X9\x04[\xcd\x98:B'
p7988
tp7989
Rp7990
ag1
(g22
S'\x85\x8b\x17\xaar\xa6<B'
p7991
tp7992
Rp7993
ag1
(g22
S'v\xe0\x9fwI\xa55B'
p7994
tp7995
Rp7996
ag1
(g22
S'\xc35\x1epX\xea:B'
p7997
tp7998
Rp7999
ag1
(g22
S'\x96s\xf7\x8946@B'
p8000
tp8001
Rp8002
ag1
(g22
S'm\x97\xf5\xca\xc2K@B'
p8003
tp8004
Rp8005
ag1
(g22
S'\x83\xf0\xeb7S\x11@B'
p8006
tp8007
Rp8008
a(lp8009
I2008
aI2009
aI2010
aI2011
aI2012
aI2013
aI2014
aI2015
aI2016
atp8010
a(g1
(g2
(S'S10'
p8011
I0
I1
tp8012
Rp8013
(I3
S'|'
p8014
NNNI10
I1
I0
tp8015
bS'South Asia'
p8016
tp8017
Rp8018
g1
(g2
(S'S60'
p8019
I0
I1
tp8020
Rp8021
(I3
S'|'
p8022
NNNI60
I1
I0
tp8023
bS'Improved sanitation facilities (% of population with access)'
p8024
tp8025
Rp8026
(lp8027
g1
(g22
S'\x89\x01\xb1m\xa2SNB'
p8028
tp8029
Rp8030
ag1
(g22
S'\x08L\x92\x11\x83\x82RB'
p8031
tp8032
Rp8033
ag1
(g22
S'\xae7{\x0e\xa5\x8eVB'
p8034
tp8035
Rp8036
ag1
(g22
S'\xc9nq\x84\xa1\xc1]B'
p8037
tp8038
Rp8039
ag1
(g22
S'\x02{\xa4\x99\xaa\xa5YB'
p8040
tp8041
Rp8042
ag1
(g22
S'\xf2\xa2itd\xd1`B'
p8043
tp8044
Rp8045
ag1
(g22
S'\xb4\x9cZ\x0b\x80\xe0dB'
p8046
tp8047
Rp8048
ag1
(g22
S'T\xe7\x11\x10\xab\xe9eB'
p8049
tp8050
Rp8051
ag1
(g22
S'\x81\xed\xffl8\x91eB'
p8052
tp8053
Rp8054
a(lp8055
I2008
aI2009
aI2010
aI2011
aI2012
aI2013
aI2014
aI2015
aI2016
atp8056
a(g1
(g2
(S'S11'
p8057
I0
I1
tp8058
Rp8059
(I3
S'|'
p8060
NNNI11
I1
I0
tp8061
bS'South Sudan'
p8062
tp8063
Rp8064
g1
(g2
(S'S60'
p8065
I0
I1
tp8066
Rp8067
(I3
S'|'
p8068
NNNI60
I1
I0
tp8069
bS'Improved sanitation facilities (% of population with access)'
p8070
tp8071
Rp8072
(lp8073
(lp8074
tp8075
a(g1
(g2
(S'S5'
p8076
I0
I1
tp8077
Rp8078
(I3
S'|'
p8079
NNNI5
I1
I0
tp8080
bS'Spain'
p8081
tp8082
Rp8083
g1
(g2
(S'S60'
p8084
I0
I1
tp8085
Rp8086
(I3
S'|'
p8087
NNNI60
I1
I0
tp8088
bS'Improved sanitation facilities (% of population with access)'
p8089
tp8090
Rp8091
(lp8092
g1
(g22
S'9T\t;\xe9\xa3WB'
p8093
tp8094
Rp8095
ag1
(g22
S'\xd7kY\x11\xbfQ\\B'
p8096
tp8097
Rp8098
ag1
(g22
S'7a\x08,\xdb\x87aB'
p8099
tp8100
Rp8101
ag1
(g22
S'\x8f\xda\xf5\xdbj\xb1bB'
p8102
tp8103
Rp8104
ag1
(g22
S'{\\K\xb9\x8an[B'
p8105
tp8106
Rp8107
ag1
(g22
S'\xbe_\xc6&L\xac\\B'
p8108
tp8109
Rp8110
ag1
(g22
S'\xc3\xc5\xd0\xaa\xb3"`B'
p8111
tp8112
Rp8113
ag1
(g22
S'\x83\xc8<\x06Ws\\B'
p8114
tp8115
Rp8116
ag1
(g22
S'=\x82\x94\xef\xb1_\\B'
p8117
tp8118
Rp8119
a(lp8120
I2008
aI2009
aI2010
aI2011
aI2012
aI2013
aI2014
aI2015
aI2016
atp8121
a(g1
(g2
(S'S9'
p8122
I0
I1
tp8123
Rp8124
(I3
S'|'
p8125
NNNI9
I1
I0
tp8126
bS'Sri Lanka'
p8127
tp8128
Rp8129
g1
(g2
(S'S60'
p8130
I0
I1
tp8131
Rp8132
(I3
S'|'
p8133
NNNI60
I1
I0
tp8134
bS'Improved sanitation facilities (% of population with access)'
p8135
tp8136
Rp8137
(lp8138
g1
(g22
S'\x00\x00P6\xa3r\x03B'
p8139
tp8140
Rp8141
ag1
(g22
S'\x00\x00\x00-7\xf3\x06B'
p8142
tp8143
Rp8144
ag1
(g22
S'\x00\x00\x00\x16KI\tB'
p8145
tp8146
Rp8147
ag1
(g22
S'\x00\x00\x00!ru\x0fB'
p8148
tp8149
Rp8150
ag1
(g22
S'\x00\x00\x00\xb2\x95\xf1\x06B'
p8151
tp8152
Rp8153
ag1
(g22
S'\x00\x00\x00\xcb\x07\x19\x0eB'
p8154
tp8155
Rp8156
ag1
(g22
S'\x00\x00\x00\xadB\xc3\x15B'
p8157
tp8158
Rp8159
ag1
(g22
S'T4c\x0c|\x87\x15B'
p8160
tp8161
Rp8162
ag1
(g22
S'sW"\x95\\\xe1\x15B'
p8163
tp8164
Rp8165
a(lp8166
I2008
aI2009
aI2010
aI2011
aI2012
aI2013
aI2014
aI2015
aI2016
atp8167
a(g1
(g2
(S'S19'
p8168
I0
I1
tp8169
Rp8170
(I3
S'|'
p8171
NNNI19
I1
I0
tp8172
bS'St. Kitts and Nevis'
p8173
tp8174
Rp8175
g1
(g2
(S'S60'
p8176
I0
I1
tp8177
Rp8178
(I3
S'|'
p8179
NNNI60
I1
I0
tp8180
bS'Improved sanitation facilities (% of population with access)'
p8181
tp8182
Rp8183
(lp8184
g1
(g22
S'T\x1c\xc7\xdb\x8cm\xb3A'
p8185
tp8186
Rp8187
ag1
(g22
S'\x00\x00\x00\xfay\xd5\xb5A'
p8188
tp8189
Rp8190
ag1
(g22
S'\xdd^B\xc7|]\xb7A'
p8191
tp8192
Rp8193
ag1
(g22
S'?UU\x89\xe6\xad\xbcA'
p8194
tp8195
Rp8196
ag1
(g22
S'\xbe\x84\xf6\x1eIx\xb8A'
p8197
tp8198
Rp8199
ag1
(g22
S'\xeb8\x8em\xe5\xe5\xb7A'
p8200
tp8201
Rp8202
ag1
(g22
S'l\t\xed\xc1\xe0\xb4\xb7A'
p8203
tp8204
Rp8205
ag1
(g22
S'z\xe38\xb6\x8eo\xb6A'
p8206
tp8207
Rp8208
ag1
(g22
S'}\t\xed\x99\xa7\xac\xb7A'
p8209
tp8210
Rp8211
a(lp8212
I2008
aI2009
aI2010
aI2011
aI2012
aI2013
aI2014
aI2015
aI2016
atp8213
a(g1
(g2
(S'S9'
p8214
I0
I1
tp8215
Rp8216
(I3
S'|'
p8217
NNNI9
I1
I0
tp8218
bS'St. Lucia'
p8219
tp8220
Rp8221
g1
(g2
(S'S60'
p8222
I0
I1
tp8223
Rp8224
(I3
S'|'
p8225
NNNI60
I1
I0
tp8226
bS'Improved sanitation facilities (% of population with access)'
p8227
tp8228
Rp8229
(lp8230
g1
(g22
S'*\x8e\xe3\x01c!\xc4A'
p8231
tp8232
Rp8233
ag1
(g22
S'WB{\xed\r\x08\xc7A'
p8234
tp8235
Rp8236
ag1
(g22
S'\xd3Kh\x82k\xab\xc8A'
p8237
tp8238
Rp8239
ag1
(g22
S'\xea%\xb4\xfbb\xd5\xcaA'
p8240
tp8241
Rp8242
ag1
(g22
S'1{\t\xd3\xfd%\xc5A'
p8243
tp8244
Rp8245
ag1
(g22
S'+\xa1\xbd\xcd\x83,\xc9A'
p8246
tp8247
Rp8248
ag1
(g22
S'_B{4\xa7f\xc9A'
p8249
tp8250
Rp8251
ag1
(g22
S'\xcbKhN\xf70\xc8A'
p8252
tp8253
Rp8254
ag1
(g22
S'\xbe\x84\xf6Q\x1f\x08\xc6A'
p8255
tp8256
Rp8257
a(lp8258
I2008
aI2009
aI2010
aI2011
aI2012
aI2013
aI2014
aI2015
aI2016
atp8259
a(g1
(g2
(S'S24'
p8260
I0
I1
tp8261
Rp8262
(I3
S'|'
p8263
NNNI24
I1
I0
tp8264
bS'St. Martin (French part)'
p8265
tp8266
Rp8267
g1
(g2
(S'S60'
p8268
I0
I1
tp8269
Rp8270
(I3
S'|'
p8271
NNNI60
I1
I0
tp8272
bS'Improved sanitation facilities (% of population with access)'
p8273
tp8274
Rp8275
(lp8276
(lp8277
tp8278
a(g1
(g2
(S'S30'
p8279
I0
I1
tp8280
Rp8281
(I3
S'|'
p8282
NNNI30
I1
I0
tp8283
bS'St. Vincent and the Grenadines'
p8284
tp8285
Rp8286
g1
(g2
(S'S60'
p8287
I0
I1
tp8288
Rp8289
(I3
S'|'
p8290
NNNI60
I1
I0
tp8291
bS'Improved sanitation facilities (% of population with access)'
p8292
tp8293
Rp8294
(lp8295
g1
(g22
S'\xd0%\xb4\xbf\x13\x9f\xb3A'
p8296
tp8297
Rp8298
ag1
(g22
S'\xda8\x8e#\xc2\xc3\xb5A'
p8299
tp8300
Rp8301
ag1
(g22
S'#\xa1\xbd\x1a+\x14\xbaA'
p8302
tp8303
Rp8304
ag1
(g22
S'\x98\xbd\x84h\xa8\xa4\xbbA'
p8305
tp8306
Rp8307
ag1
(g22
S'\x96\x97\xd0@k\xb8\xb8A'
p8308
tp8309
Rp8310
ag1
(g22
S'\xcc^B)\x13\xaf\xb8A'
p8311
tp8312
Rp8313
ag1
(g22
S'\xef\xff\xff\xa3\xa2\xc9\xb7A'
p8314
tp8315
Rp8316
ag1
(g22
S'WB{\x19\x98\t\xb9A'
p8317
tp8318
Rp8319
ag1
(g22
S'\xda8\x8eI\x83i\xbaA'
p8320
tp8321
Rp8322
a(lp8323
I2008
aI2009
aI2010
aI2011
aI2012
aI2013
aI2014
aI2015
aI2016
atp8324
a(g1
(g2
(S'S38'
p8325
I0
I1
tp8326
Rp8327
(I3
S'|'
p8328
NNNI38
I1
I0
tp8329
bS'Sub-Saharan Africa (all income levels)'
p8330
tp8331
Rp8332
g1
(g2
(S'S60'
p8333
I0
I1
tp8334
Rp8335
(I3
S'|'
p8336
NNNI60
I1
I0
tp8337
bS'Improved sanitation facilities (% of population with access)'
p8338
tp8339
Rp8340
(lp8341
g1
(g22
S'\x06\xa1\x04\xb1 \xcfLB'
p8342
tp8343
Rp8344
ag1
(g22
S'\xe9.\x05\x85/#QB'
p8345
tp8346
Rp8347
ag1
(g22
S'\xdd\x1cS\xedd\xdfUB'
p8348
tp8349
Rp8350
ag1
(g22
S'\x02\x83!"C%[B'
p8351
tp8352
Rp8353
ag1
(g22
S'\xc5P"\xebp\x93VB'
p8354
tp8355
Rp8356
ag1
(g22
S'\x838\x82\xd4\x19\n[B'
p8357
tp8358
Rp8359
ag1
(g22
S')x\xa4\x16\xf4>`B'
p8360
tp8361
Rp8362
ag1
(g22
S'\xfe\x04\xe6\xe3J\x7f`B'
p8363
tp8364
Rp8365
ag1
(g22
S'\xae3\x93w\x8a\naB'
p8366
tp8367
Rp8368
a(lp8369
I2008
aI2009
aI2010
aI2011
aI2012
aI2013
aI2014
aI2015
aI2016
atp8370
a(g1
(g2
(S'S36'
p8371
I0
I1
tp8372
Rp8373
(I3
S'|'
p8374
NNNI36
I1
I0
tp8375
bS'Sub-Saharan Africa (developing only)'
p8376
tp8377
Rp8378
g1
(g2
(S'S60'
p8379
I0
I1
tp8380
Rp8381
(I3
S'|'
p8382
NNNI60
I1
I0
tp8383
bS'Improved sanitation facilities (% of population with access)'
p8384
tp8385
Rp8386
(lp8387
g1
(g22
S'\x91\x8dh\xe5\x9f{LB'
p8388
tp8389
Rp8390
ag1
(g22
S'\xc5\xa8BF\xab\xf2PB'
p8391
tp8392
Rp8393
ag1
(g22
S"'\xf9\x84f6\xa6UB"
p8394
tp8395
Rp8396
ag1
(g22
S'\xb8v\xd9\xc6\xfc\xdfZB'
p8397
tp8398
Rp8399
ag1
(g22
S'\xd1b\x94\xac\x84XVB'
p8400
tp8401
Rp8402
ag1
(g22
S'\x19\xc4]e\x8c\xc6ZB'
p8403
tp8404
Rp8405
ag1
(g22
S'u\x8f\xe0\x85\x92\x16`B'
p8406
tp8407
Rp8408
ag1
(g22
S'\xcd\x98\x94\x0b}V`B'
p8409
tp8410
Rp8411
ag1
(g22
S'\x9e\x7f\x1ar\xec\xdf`B'
p8412
tp8413
Rp8414
a(lp8415
I2008
aI2009
aI2010
aI2011
aI2012
aI2013
aI2014
aI2015
aI2016
atp8416
a(g1
(g2
(S'S5'
p8417
I0
I1
tp8418
Rp8419
(I3
S'|'
p8420
NNNI5
I1
I0
tp8421
bS'Sudan'
p8422
tp8423
Rp8424
g1
(g2
(S'S60'
p8425
I0
I1
tp8426
Rp8427
(I3
S'|'
p8428
NNNI60
I1
I0
tp8429
bS'Improved sanitation facilities (% of population with access)'
p8430
tp8431
Rp8432
(lp8433
g1
(g22
S'\xcfZ\xe2nE\x93\x00B'
p8434
tp8435
Rp8436
ag1
(g22
S'\xe5\xe1\xb4\xe1b\x98\tB'
p8437
tp8438
Rp8439
ag1
(g22
S'\xdb\nHl\xb5\xfc\tB'
p8440
tp8441
Rp8442
ag1
(g22
S'B\xcf\x94\x05\x02\x85\x0eB'
p8443
tp8444
Rp8445
ag1
(g22
S'\x00o\xb9\x9f{~\x0bB'
p8446
tp8447
Rp8448
ag1
(g22
S'\xe6\xaek\xe2\x9c3\rB'
p8449
tp8450
Rp8451
ag1
(g22
S'\xbf\x8eh\x0e\xd1)\x08B'
p8452
tp8453
Rp8454
ag1
(g22
S'\xb1\xbf\x14\x90\xa8\xd2\x06B'
p8455
tp8456
Rp8457
ag1
(g22
S'\xff!!\xe4\x9d\x1a\x0bB'
p8458
tp8459
Rp8460
a(lp8461
I2008
aI2009
aI2010
aI2011
aI2012
aI2013
aI2014
aI2015
aI2016
atp8462
a(g1
(g2
(S'S8'
p8463
I0
I1
tp8464
Rp8465
(I3
S'|'
p8466
NNNI8
I1
I0
tp8467
bS'Suriname'
p8468
tp8469
Rp8470
g1
(g2
(S'S60'
p8471
I0
I1
tp8472
Rp8473
(I3
S'|'
p8474
NNNI60
I1
I0
tp8475
bS'Improved sanitation facilities (% of population with access)'
p8476
tp8477
Rp8478
(lp8479
g1
(g22
S'\x00\x00\x00\xc8\xbb\xeb\xd7A'
p8480
tp8481
Rp8482
ag1
(g22
S'\x00\x00\x00P\xb6\xa5\xd2A'
p8483
tp8484
Rp8485
ag1
(g22
S'\x00\x00\x00\xe8\x86\xfe\xd4A'
p8486
tp8487
Rp8488
ag1
(g22
S'\x00\x00\x00\xc8\xa3Z\xdbA'
p8489
tp8490
Rp8491
ag1
(g22
S'\x00\x00\x00\xd0\xccX\xd9A'
p8492
tp8493
Rp8494
ag1
(g22
S'\x00\x00\x00(\x02\xa2\xdaA'
p8495
tp8496
Rp8497
ag1
(g22
S'v\xc3\xceT.\xc6\xe2A'
p8498
tp8499
Rp8500
ag1
(g22
S'\x1f\x85s\xd6B\xe1\xe4A'
p8501
tp8502
Rp8503
ag1
(g22
S'\xdb\xdc\xfb\xfeAL\xe5A'
p8504
tp8505
Rp8506
a(lp8507
I2008
aI2009
aI2010
aI2011
aI2012
aI2013
aI2014
aI2015
aI2016
atp8508
a(g1
(g2
(S'S9'
p8509
I0
I1
tp8510
Rp8511
(I3
S'|'
p8512
NNNI9
I1
I0
tp8513
bS'Swaziland'
p8514
tp8515
Rp8516
g1
(g2
(S'S60'
p8517
I0
I1
tp8518
Rp8519
(I3
S'|'
p8520
NNNI60
I1
I0
tp8521
bS'Improved sanitation facilities (% of population with access)'
p8522
tp8523
Rp8524
(lp8525
g1
(g22
S'nL\xd192\xf5\xe0A'
p8526
tp8527
Rp8528
ag1
(g22
S'/\xa8\xff21\xf0\xe1A'
p8529
tp8530
Rp8531
ag1
(g22
S'\xba\xbd\x14\xf3\x14\xd0\xe3A'
p8532
tp8533
Rp8534
ag1
(g22
S'\xadn5\xfb\xa1\x80\xe2A'
p8535
tp8536
Rp8537
ag1
(g22
S'\\\xac\xcd\xbbA\xe9\xe3A'
p8538
tp8539
Rp8540
ag1
(g22
S'\xa0\xe0\xbc\xb2\n\xd3\xe6A'
p8541
tp8542
Rp8543
ag1
(g22
S'\x0154\xbb\x1cU\xe8A'
p8544
tp8545
Rp8546
ag1
(g22
S' A\xe1\x00\xb4\xc1\xe7A'
p8547
tp8548
Rp8549
ag1
(g22
S'\xae*\x06\nH\xed\xe5A'
p8550
tp8551
Rp8552
a(lp8553
I2008
aI2009
aI2010
aI2011
aI2012
aI2013
aI2014
aI2015
aI2016
atp8554
a(g1
(g2
(S'S6'
p8555
I0
I1
tp8556
Rp8557
(I3
S'|'
p8558
NNNI6
I1
I0
tp8559
bS'Sweden'
p8560
tp8561
Rp8562
g1
(g2
(S'S60'
p8563
I0
I1
tp8564
Rp8565
(I3
S'|'
p8566
NNNI60
I1
I0
tp8567
bS'Improved sanitation facilities (% of population with access)'
p8568
tp8569
Rp8570
(lp8571
g1
(g22
S'\xfe\x94\x0b3\n\x03EB'
p8572
tp8573
Rp8574
ag1
(g22
S'!\xf0%W-\x91HB'
p8575
tp8576
Rp8577
ag1
(g22
S'B\x90\x07r%\xc7MB'
p8578
tp8579
Rp8580
ag1
(g22
S'\x06\xa9\x90\xf3\xf0KPB'
p8581
tp8582
Rp8583
ag1
(g22
S'\x06\xc1\x82\xb0\xd4\xf2GB'
p8584
tp8585
Rp8586
ag1
(g22
S'\x08l\xe8\x13D8LB'
p8587
tp8588
Rp8589
ag1
(g22
S'\xe1Z\x88\xe3RkPB'
p8590
tp8591
Rp8592
ag1
(g22
S'\xd9N\xf4\x9b\x9a\xc3NB'
p8593
tp8594
Rp8595
ag1
(g22
S'\xa0\xeaB"\xc1\xdeNB'
p8596
tp8597
Rp8598
a(lp8599
I2008
aI2009
aI2010
aI2011
aI2012
aI2013
aI2014
aI2015
aI2016
atp8600
a(g1
(g2
(S'S11'
p8601
I0
I1
tp8602
Rp8603
(I3
S'|'
p8604
NNNI11
I1
I0
tp8605
bS'Switzerland'
p8606
tp8607
Rp8608
g1
(g2
(S'S60'
p8609
I0
I1
tp8610
Rp8611
(I3
S'|'
p8612
NNNI60
I1
I0
tp8613
bS'Improved sanitation facilities (% of population with access)'
p8614
tp8615
Rp8616
(lp8617
g1
(g22
S'FVxJ\xdb\xceMB'
p8618
tp8619
Rp8620
ag1
(g22
S'\\\xffHX\xf5oPB'
p8621
tp8622
Rp8623
ag1
(g22
S'b\xd0\x8ai9\xecTB'
p8624
tp8625
Rp8626
ag1
(g22
S'\x89\x19\x1cn\xe8\xddWB'
p8627
tp8628
Rp8629
ag1
(g22
S'\xd1\xbaD5\xb8jTB'
p8630
tp8631
Rp8632
ag1
(g22
S'\xe3EV\xf2\x90XWB'
p8633
tp8634
Rp8635
ag1
(g22
S'\x06I\x12\xce\xc6&]B'
p8636
tp8637
Rp8638
ag1
(g22
S'F~\x97c\xcd!\\B'
p8639
tp8640
Rp8641
ag1
(g22
S'\xb2u\xd7qY\x18^B'
p8642
tp8643
Rp8644
a(lp8645
I2008
aI2009
aI2010
aI2011
aI2012
aI2013
aI2014
aI2015
aI2016
atp8646
a(g1
(g2
(S'S20'
p8647
I0
I1
tp8648
Rp8649
(I3
S'|'
p8650
NNNI20
I1
I0
tp8651
bS'Syrian Arab Republic'
p8652
tp8653
Rp8654
g1
(g2
(S'S60'
p8655
I0
I1
tp8656
Rp8657
(I3
S'|'
p8658
NNNI60
I1
I0
tp8659
bS'Improved sanitation facilities (% of population with access)'
p8660
tp8661
Rp8662
(lp8663
g1
(g22
S'\x00\x00\x00\xfe:\x05\x07B'
p8664
tp8665
Rp8666
ag1
(g22
S'\x00\x00\x00\x14G\xaa\x08B'
p8667
tp8668
Rp8669
ag1
(g22
S'\x00\x80\x89\xefS\xde\x0eB'
p8670
tp8671
Rp8672
ag1
(g22
S'e*\t#\x03\x87\x13B'
p8673
tp8674
Rp8675
ag1
(g22
S'[q\x8a\xdc\xa0\xdf\x10B'
p8676
tp8677
Rp8678
ag1
(g22
S'\xf7u\xf6\xb1\xe4\xc6\x13B'
p8679
tp8680
Rp8681
a(lp8682
I2008
aI2009
aI2010
aI2011
aI2012
aI2013
atp8683
a(g1
(g2
(S'S10'
p8684
I0
I1
tp8685
Rp8686
(I3
S'|'
p8687
NNNI10
I1
I0
tp8688
bS'Tajikistan'
p8689
tp8690
Rp8691
g1
(g2
(S'S60'
p8692
I0
I1
tp8693
Rp8694
(I3
S'|'
p8695
NNNI60
I1
I0
tp8696
bS'Improved sanitation facilities (% of population with access)'
p8697
tp8698
Rp8699
(lp8700
g1
(g22
S'\x00\x00\x00P#\xd2\xd9A'
p8701
tp8702
Rp8703
ag1
(g22
S'\x00\x00\x80o(\x12\xe2A'
p8704
tp8705
Rp8706
ag1
(g22
S'\x00\x00\x80\x06B*\xecA'
p8707
tp8708
Rp8709
ag1
(g22
S'\x00\x00\x00s&~\xefA'
p8710
tp8711
Rp8712
ag1
(g22
S'\x00\x00\x80U4f\xe7A'
p8713
tp8714
Rp8715
ag1
(g22
S'\xa0\x1a\xb7!\xd5\xc2\xe9A'
p8716
tp8717
Rp8718
ag1
(g22
S'\x00\x00\x00\xf1\xfb\x16\xf0A'
p8719
tp8720
Rp8721
ag1
(g22
S'\x00\x00\xf0\x0e*\r\xf4A'
p8722
tp8723
Rp8724
a(lp8725
I2008
aI2009
aI2010
aI2011
aI2012
aI2013
aI2014
aI2015
atp8726
a(g1
(g2
(S'S8'
p8727
I0
I1
tp8728
Rp8729
(I3
S'|'
p8730
NNNI8
I1
I0
tp8731
bS'Tanzania'
p8732
tp8733
Rp8734
g1
(g2
(S'S60'
p8735
I0
I1
tp8736
Rp8737
(I3
S'|'
p8738
NNNI60
I1
I0
tp8739
bS'Improved sanitation facilities (% of population with access)'
p8740
tp8741
Rp8742
(lp8743
g1
(g22
S'&\xc7\x986\xe4I\xf1A'
p8744
tp8745
Rp8746
ag1
(g22
S'\xae\rB\x80\x0co\xf3A'
p8747
tp8748
Rp8749
ag1
(g22
S'\x18Cs\x95\x0e\xd3\xf8A'
p8750
tp8751
Rp8752
ag1
(g22
S'B`\xbf\xb6\x89\xf8\x00B'
p8753
tp8754
Rp8755
ag1
(g22
S'&\xaaIG\xb7\xdb\xfdA'
p8756
tp8757
Rp8758
ag1
(g22
S'\xee\x88\xf0\x07\xad\xc5\x01B'
p8759
tp8760
Rp8761
ag1
(g22
S'\x0b\xc6\xe2(l=\x07B'
p8762
tp8763
Rp8764
ag1
(g22
S'\xa5,\xc4\xc9\x90\xed\x08B'
p8765
tp8766
Rp8767
ag1
(g22
S'\xdb\xf9\xceB\xb0/\nB'
p8768
tp8769
Rp8770
a(lp8771
I2008
aI2009
aI2010
aI2011
aI2012
aI2013
aI2014
aI2015
aI2016
atp8772
a(g1
(g2
(S'S8'
p8773
I0
I1
tp8774
Rp8775
(I3
S'|'
p8776
NNNI8
I1
I0
tp8777
bS'Thailand'
p8778
tp8779
Rp8780
g1
(g2
(S'S60'
p8781
I0
I1
tp8782
Rp8783
(I3
S'|'
p8784
NNNI60
I1
I0
tp8785
bS'Improved sanitation facilities (% of population with access)'
p8786
tp8787
Rp8788
(lp8789
g1
(g22
S'\x1f5\x98\x87Y\xb7@B'
p8790
tp8791
Rp8792
ag1
(g22
S'\xfc\xb9id\xd1kBB'
p8793
tp8794
Rp8795
ag1
(g22
S'\xd1r\xcc\xf0\xe1\x99DB'
p8796
tp8797
Rp8798
ag1
(g22
S'\x81EC\x14}~IB'
p8799
tp8800
Rp8801
ag1
(g22
S'w>y\xbb\n\xbbCB'
p8802
tp8803
Rp8804
ag1
(g22
S'J\x9c|\xeb\xfcpJB'
p8805
tp8806
Rp8807
ag1
(g22
S'y\xe9\xb0\x97\xd3`OB'
p8808
tp8809
Rp8810
ag1
(g22
S')<\xec\xe9$DQB'
p8811
tp8812
Rp8813
ag1
(g22
S'\xa4(\xd4\x9cI\xbdQB'
p8814
tp8815
Rp8816
a(lp8817
I2008
aI2009
aI2010
aI2011
aI2012
aI2013
aI2014
aI2015
aI2016
atp8818
a(g1
(g2
(S'S11'
p8819
I0
I1
tp8820
Rp8821
(I3
S'|'
p8822
NNNI11
I1
I0
tp8823
bS'Timor-Leste'
p8824
tp8825
Rp8826
g1
(g2
(S'S60'
p8827
I0
I1
tp8828
Rp8829
(I3
S'|'
p8830
NNNI60
I1
I0
tp8831
bS'Improved sanitation facilities (% of population with access)'
p8832
tp8833
Rp8834
(lp8835
g1
(g22
S'\x13I\x94H\xb0\xf8\xb3A'
p8836
tp8837
Rp8838
ag1
(g22
S'\x00:\xfc\x12\xe8-\xbeA'
p8839
tp8840
Rp8841
ag1
(g22
S'q\x8f\xc5\x9aJ!\xc8A'
p8842
tp8843
Rp8844
ag1
(g22
S'\xc5\xe6W\t\x94\x95\xd1A'
p8845
tp8846
Rp8847
ag1
(g22
S'\x1d\xe6\x9d\xf6\xb7!\xd4A'
p8848
tp8849
Rp8850
ag1
(g22
S'\xf1)\x10\x0e\xfc\xf0\xdbA'
p8851
tp8852
Rp8853
ag1
(g22
S'\xdf\x891\xa3\x8b\xe4\xd8A'
p8854
tp8855
Rp8856
ag1
(g22
S'\xa9j\xe4A\xed\x12\xd2A'
p8857
tp8858
Rp8859
a(lp8860
I2009
aI2010
aI2011
aI2012
aI2013
aI2014
aI2015
aI2016
atp8861
a(g1
(g2
(S'S4'
p8862
I0
I1
tp8863
Rp8864
(I3
S'|'
p8865
NNNI4
I1
I0
tp8866
bS'Togo'
p8867
tp8868
Rp8869
g1
(g2
(S'S60'
p8870
I0
I1
tp8871
Rp8872
(I3
S'|'
p8873
NNNI60
I1
I0
tp8874
bS'Improved sanitation facilities (% of population with access)'
p8875
tp8876
Rp8877
(lp8878
g1
(g22
S'\x12\x83^\xd3z\x9c\xd2A'
p8879
tp8880
Rp8881
ag1
(g22
S'\xc7\xba\xf8s]Z\xd3A'
p8882
tp8883
Rp8884
ag1
(g22
S' A\x19Z\x85\xe3\xd5A'
p8885
tp8886
Rp8887
ag1
(g22
S'\xf4\x89\xf8\xcd\xbaC\xdaA'
p8888
tp8889
Rp8890
ag1
(g22
S'\xa1\xf8\xa7\x8e\xf6{\xdaA'
p8891
tp8892
Rp8893
ag1
(g22
S'\xc9Y>\xda\x8b\x13\xddA'
p8894
tp8895
Rp8896
ag1
(g22
S'\x03`\xf5\xa0\xde\xc0\xe3A'
p8897
tp8898
Rp8899
ag1
(g22
S'*:\xea\n\xea\xee\xe2A'
p8900
tp8901
Rp8902
a(lp8903
I2008
aI2009
aI2010
aI2011
aI2012
aI2013
aI2014
aI2015
atp8904
a(g1
(g2
(S'S5'
p8905
I0
I1
tp8906
Rp8907
(I3
S'|'
p8908
NNNI5
I1
I0
tp8909
bS'Tonga'
p8910
tp8911
Rp8912
g1
(g2
(S'S60'
p8913
I0
I1
tp8914
Rp8915
(I3
S'|'
p8916
NNNI60
I1
I0
tp8917
bS'Improved sanitation facilities (% of population with access)'
p8918
tp8919
Rp8920
(lp8921
g1
(g22
S'&\xfb\xd7\x05R\xb1\xa2A'
p8922
tp8923
Rp8924
ag1
(g22
S'\xf1c<2\xe2\xba\xa4A'
p8925
tp8926
Rp8927
ag1
(g22
S'%zi\xb3;8\xa8A'
p8928
tp8929
Rp8930
ag1
(g22
S'GwP\xd8\xef\xf1\xadA'
p8931
tp8932
Rp8933
ag1
(g22
S'l\t\x01\x9c\xabA\xadA'
p8934
tp8935
Rp8936
ag1
(g22
S'\x984\x8ey\xfd\xba\xabA'
p8937
tp8938
Rp8939
ag1
(g22
S'Y\xfa\xe4o\x95\x1e\xb1A'
p8940
tp8941
Rp8942
ag1
(g22
S'\xc9\xad\xf5\x93\n\xf6\xb0A'
p8943
tp8944
Rp8945
a(lp8946
I2008
aI2009
aI2010
aI2011
aI2012
aI2013
aI2014
aI2015
atp8947
a(g1
(g2
(S'S19'
p8948
I0
I1
tp8949
Rp8950
(I3
S'|'
p8951
NNNI19
I1
I0
tp8952
bS'Trinidad and Tobago'
p8953
tp8954
Rp8955
g1
(g2
(S'S60'
p8956
I0
I1
tp8957
Rp8958
(I3
S'|'
p8959
NNNI60
I1
I0
tp8960
bS'Improved sanitation facilities (% of population with access)'
p8961
tp8962
Rp8963
(lp8964
g1
(g22
S'\x00\x00\x00\xa0\xd7\x90\xfaA'
p8965
tp8966
Rp8967
ag1
(g22
S'\x00\x00\x00\xe2\xc5\x11\xfeA'
p8968
tp8969
Rp8970
ag1
(g22
S'\x00\x00\x00C%J\x01B'
p8971
tp8972
Rp8973
ag1
(g22
S'\x00\x00\x00\x9e\x18C\x05B'
p8974
tp8975
Rp8976
ag1
(g22
S'\x00\x00\x00&\xb2!\x00B'
p8977
tp8978
Rp8979
ag1
(g22
S'\x00\x00\x00\xea\x86\xbb\xfeA'
p8980
tp8981
Rp8982
ag1
(g22
S'\x87g\x8b\x1c\x1e\n\x11B'
p8983
tp8984
Rp8985
a(lp8986
I2008
aI2009
aI2010
aI2011
aI2012
aI2013
aI2014
atp8987
a(g1
(g2
(S'S7'
p8988
I0
I1
tp8989
Rp8990
(I3
S'|'
p8991
NNNI7
I1
I0
tp8992
bS'Tunisia'
p8993
tp8994
Rp8995
g1
(g2
(S'S60'
p8996
I0
I1
tp8997
Rp8998
(I3
S'|'
p8999
NNNI60
I1
I0
tp9000
bS'Improved sanitation facilities (% of population with access)'
p9001
tp9002
Rp9003
(lp9004
g1
(g22
S'\x8eu4X\xa0\xb9\x0eB'
p9005
tp9006
Rp9007
ag1
(g22
S'\xfe\x14\xb9$\xbe\x0f\x11B'
p9008
tp9009
Rp9010
ag1
(g22
S'\xc1\xe8\x00\xca\x8az\x15B'
p9011
tp9012
Rp9013
ag1
(g22
S'\x95\xd4\xa3\xb1,:\x1bB'
p9014
tp9015
Rp9016
ag1
(g22
S'\x00\xd1>!_\xb7\x15B'
p9017
tp9018
Rp9019
ag1
(g22
S'\x15\x8cd-\xb6\xc4\x18B'
p9020
tp9021
Rp9022
ag1
(g22
S'j^oB\xb4K\x1aB'
p9023
tp9024
Rp9025
ag1
(g22
S'@\x93\x12\xe0\x12\x84\x1aB'
p9026
tp9027
Rp9028
ag1
(g22
S'\xe8\xaa \x0e\xce\xac\x1aB'
p9029
tp9030
Rp9031
a(lp9032
I2008
aI2009
aI2010
aI2011
aI2012
aI2013
aI2014
aI2015
aI2016
atp9033
a(g1
(g2
(S'S6'
p9034
I0
I1
tp9035
Rp9036
(I3
S'|'
p9037
NNNI6
I1
I0
tp9038
bS'Turkey'
p9039
tp9040
Rp9041
g1
(g2
(S'S60'
p9042
I0
I1
tp9043
Rp9044
(I3
S'|'
p9045
NNNI60
I1
I0
tp9046
bS'Improved sanitation facilities (% of population with access)'
p9047
tp9048
Rp9049
(lp9050
g1
(g22
S'\x00\x00\x80_%\xf0>B'
p9051
tp9052
Rp9053
ag1
(g22
S"\x00\x00\xa0\x84'eBB"
p9054
tp9055
Rp9056
ag1
(g22
S'\x00\x00@*bTFB'
p9057
tp9058
Rp9059
ag1
(g22
S'\x00\x00@\x9cXyJB'
p9060
tp9061
Rp9062
ag1
(g22
S'\x00\x00\xa0L\xaf<CB'
p9063
tp9064
Rp9065
ag1
(g22
S'\x00\x00@\x1e\xb1PHB'
p9066
tp9067
Rp9068
ag1
(g22
S'\x00\x00 \xf7\x9f\xcaNB'
p9069
tp9070
Rp9071
ag1
(g22
S'\x00\x00`P\x01XNB'
p9072
tp9073
Rp9074
ag1
(g22
S'\x00\x00P\xb3\xe3DPB'
p9075
tp9076
Rp9077
a(lp9078
I2008
aI2009
aI2010
aI2011
aI2012
aI2013
aI2014
aI2015
aI2016
atp9079
a(g1
(g2
(S'S12'
p9080
I0
I1
tp9081
Rp9082
(I3
S'|'
p9083
NNNI12
I1
I0
tp9084
bS'Turkmenistan'
p9085
tp9086
Rp9087
g1
(g2
(S'S60'
p9088
I0
I1
tp9089
Rp9090
(I3
S'|'
p9091
NNNI60
I1
I0
tp9092
bS'Improved sanitation facilities (% of population with access)'
p9093
tp9094
Rp9095
(lp9096
(lp9097
tp9098
a(g1
(g2
(S'S24'
p9099
I0
I1
tp9100
Rp9101
(I3
S'|'
p9102
NNNI24
I1
I0
tp9103
bS'Turks and Caicos Islands'
p9104
tp9105
Rp9106
g1
(g2
(S'S60'
p9107
I0
I1
tp9108
Rp9109
(I3
S'|'
p9110
NNNI60
I1
I0
tp9111
bS'Improved sanitation facilities (% of population with access)'
p9112
tp9113
Rp9114
(lp9115
(lp9116
tp9117
a(g1
(g2
(S'S6'
p9118
I0
I1
tp9119
Rp9120
(I3
S'|'
p9121
NNNI6
I1
I0
tp9122
bS'Tuvalu'
p9123
tp9124
Rp9125
g1
(g2
(S'S60'
p9126
I0
I1
tp9127
Rp9128
(I3
S'|'
p9129
NNNI60
I1
I0
tp9130
bS'Improved sanitation facilities (% of population with access)'
p9131
tp9132
Rp9133
(lp9134
g1
(g22
S'N\x08"\x8dD\xeasA'
p9135
tp9136
Rp9137
ag1
(g22
S'\xfb7\x94\xabh)uA'
p9138
tp9139
Rp9140
ag1
(g22
S'\xec\x94}w1\xeb~A'
p9141
tp9142
Rp9143
ag1
(g22
S'\xe0\x1f\xf0\x9dB4\x83A'
p9144
tp9145
Rp9146
ag1
(g22
S'\xf9\xc0\xde\xe0\x18\xc1\x88A'
p9147
tp9148
Rp9149
ag1
(g22
S'\xc2\x03\x89FL\x11\x8aA'
p9150
tp9151
Rp9152
ag1
(g22
S'\xad\xeb\x06Q\xa0\x16\x90A'
p9153
tp9154
Rp9155
ag1
(g22
S'\xb5\x06\xa5\x9a}\xee\x89A'
p9156
tp9157
Rp9158
ag1
(g22
S'\xef\xcc\x9f\xfc\x82\x9f\x84A'
p9159
tp9160
Rp9161
a(lp9162
I2008
aI2009
aI2010
aI2011
aI2012
aI2013
aI2014
aI2015
aI2016
atp9163
a(g1
(g2
(S'S6'
p9164
I0
I1
tp9165
Rp9166
(I3
S'|'
p9167
NNNI6
I1
I0
tp9168
bS'Uganda'
p9169
tp9170
Rp9171
g1
(g2
(S'S60'
p9172
I0
I1
tp9173
Rp9174
(I3
S'|'
p9175
NNNI60
I1
I0
tp9176
bS'Improved sanitation facilities (% of population with access)'
p9177
tp9178
Rp9179
(lp9180
g1
(g22
S'\x9b\xac\xdb\xe3\xd9\xad\xe3A'
p9181
tp9182
Rp9183
ag1
(g22
S'\x02\xb7\xcc\x10_|\xe8A'
p9184
tp9185
Rp9186
ag1
(g22
S'S\xae\x9d\x8d\xaf\xc3\xefA'
p9187
tp9188
Rp9189
ag1
(g22
S'n\x97\x80C\xfd(\xf5A'
p9190
tp9191
Rp9192
ag1
(g22
S'O\xa3\xd5\xcf\xf3\x00\xf5A'
p9193
tp9194
Rp9195
ag1
(g22
S'\x95\xc8\xbc\xad\xb66\xf8A'
p9196
tp9197
Rp9198
ag1
(g22
S'\xc5~"\x9d\xa5B\xfdA'
p9199
tp9200
Rp9201
ag1
(g22
S')K%\x1d[\xc0\xfeA'
p9202
tp9203
Rp9204
ag1
(g22
S'z_\x95INo\xffA'
p9205
tp9206
Rp9207
a(lp9208
I2008
aI2009
aI2010
aI2011
aI2012
aI2013
aI2014
aI2015
aI2016
atp9209
a(g1
(g2
(S'S7'
p9210
I0
I1
tp9211
Rp9212
(I3
S'|'
p9213
NNNI7
I1
I0
tp9214
bS'Ukraine'
p9215
tp9216
Rp9217
g1
(g2
(S'S60'
p9218
I0
I1
tp9219
Rp9220
(I3
S'|'
p9221
NNNI60
I1
I0
tp9222
bS'Improved sanitation facilities (% of population with access)'
p9223
tp9224
Rp9225
(lp9226
g1
(g22
S'\x00\x00\x80\x93\xd9X$B'
p9227
tp9228
Rp9229
ag1
(g22
S'\x00\x00\x80#g^)B'
p9230
tp9231
Rp9232
ag1
(g22
S'\x00\x00\x80\xa4G21B'
p9233
tp9234
Rp9235
ag1
(g22
S'\x00\x00\xc0\x1da+8B'
p9236
tp9237
Rp9238
ag1
(g22
S'\x00\x00\x80\x8a\xces,B'
p9239
tp9240
Rp9241
ag1
(g22
S'\x00\x00\x00\xe3\xbd\xc51B'
p9242
tp9243
Rp9244
ag1
(g22
S'\x00\x00\x80u\xed\xff7B'
p9245
tp9246
Rp9247
ag1
(g22
S'\x00\x00@\t\xb1\xd29B'
p9248
tp9249
Rp9250
ag1
(g22
S'\x00\x00@\xd0k.9B'
p9251
tp9252
Rp9253
a(lp9254
I2008
aI2009
aI2010
aI2011
aI2012
aI2013
aI2014
aI2015
aI2016
atp9255
a(g1
(g2
(S'S20'
p9256
I0
I1
tp9257
Rp9258
(I3
S'|'
p9259
NNNI20
I1
I0
tp9260
bS'United Arab Emirates'
p9261
tp9262
Rp9263
g1
(g2
(S'S60'
p9264
I0
I1
tp9265
Rp9266
(I3
S'|'
p9267
NNNI60
I1
I0
tp9268
bS'Improved sanitation facilities (% of population with access)'
p9269
tp9270
Rp9271
(lp9272
(lp9273
tp9274
a(g1
(g2
(S'S14'
p9275
I0
I1
tp9276
Rp9277
(I3
S'|'
p9278
NNNI14
I1
I0
tp9279
bS'United Kingdom'
p9280
tp9281
Rp9282
g1
(g2
(S'S60'
p9283
I0
I1
tp9284
Rp9285
(I3
S'|'
p9286
NNNI60
I1
I0
tp9287
bS'Improved sanitation facilities (% of population with access)'
p9288
tp9289
Rp9290
(lp9291
g1
(g22
S'\x0c\xb2\x14M\x84\xb0lB'
p9292
tp9293
Rp9294
ag1
(g22
S'\xae\x93\xff\xea\x86\xc3qB'
p9295
tp9296
Rp9297
ag1
(g22
S'=\xf2:j*\xeetB'
p9298
tp9299
Rp9300
ag1
(g22
S'\xa4\x0c&r\xe6ltB'
p9301
tp9302
Rp9303
ag1
(g22
S'y!\xb1:\xfe{kB'
p9304
tp9305
Rp9306
ag1
(g22
S'\xac\x80%\x18Z\x02mB'
p9307
tp9308
Rp9309
ag1
(g22
S'\xa4<\xe1\xc7\x8f\x87pB'
p9310
tp9311
Rp9312
ag1
(g22
S'f:\x01YPcpB'
p9313
tp9314
Rp9315
ag1
(g22
S'\xec\xa1\x16\x93\xd5\x88pB'
p9316
tp9317
Rp9318
a(lp9319
I2008
aI2009
aI2010
aI2011
aI2012
aI2013
aI2014
aI2015
aI2016
atp9320
a(g1
(g2
(S'S13'
p9321
I0
I1
tp9322
Rp9323
(I3
S'|'
p9324
NNNI13
I1
I0
tp9325
bS'United States'
p9326
tp9327
Rp9328
g1
(g2
(S'S60'
p9329
I0
I1
tp9330
Rp9331
(I3
S'|'
p9332
NNNI60
I1
I0
tp9333
bS'Improved sanitation facilities (% of population with access)'
p9334
tp9335
Rp9336
(lp9337
g1
(g22
S'\x00\x00|e\x11\x05\x82B'
p9338
tp9339
Rp9340
ag1
(g22
S'\x00\x00^\xbc"\xe0\x84B'
p9341
tp9342
Rp9343
ag1
(g22
S'\x00\x00\xc6S\x92\x92\x86B'
p9344
tp9345
Rp9346
ag1
(g22
S'\x00\x00\xee\x17p|\x87B'
p9347
tp9348
Rp9349
ag1
(g22
S'\x00\x00z\x03\xad\xe1\x81B'
p9350
tp9351
Rp9352
ag1
(g22
S'\x00\x00x"\xd0\xc6\x84B'
p9353
tp9354
Rp9355
ag1
(g22
S'\x00\x00\xa0\xfdPc\x87B'
p9356
tp9357
Rp9358
ag1
(g22
S'\x00\x00Lv\xe0\x1c\x88B'
p9359
tp9360
Rp9361
ag1
(g22
S'\x00\x00\x9cX\xbfG\x88B'
p9362
tp9363
Rp9364
a(lp9365
I2008
aI2009
aI2010
aI2011
aI2012
aI2013
aI2014
aI2015
aI2016
atp9366
a(g1
(g2
(S'S19'
p9367
I0
I1
tp9368
Rp9369
(I3
S'|'
p9370
NNNI19
I1
I0
tp9371
bS'Upper middle income'
p9372
tp9373
Rp9374
g1
(g2
(S'S60'
p9375
I0
I1
tp9376
Rp9377
(I3
S'|'
p9378
NNNI60
I1
I0
tp9379
bS'Improved sanitation facilities (% of population with access)'
p9380
tp9381
Rp9382
(lp9383
g1
(g22
S'\xcd\x08\xeeW]G~B'
p9384
tp9385
Rp9386
ag1
(g22
S'\xc3\xadu\xfcp\xb3\x81B'
p9387
tp9388
Rp9389
ag1
(g22
S'\xaeYY\xf5\x1e\x84\x85B'
p9390
tp9391
Rp9392
ag1
(g22
S'=V\xa2\xc2\xfb\xe3\x89B'
p9393
tp9394
Rp9395
ag1
(g22
S'\xae#\xfeL\xfe\xdb\x85B'
p9396
tp9397
Rp9398
ag1
(g22
S'q%Ja\xfc1\x8cB'
p9399
tp9400
Rp9401
ag1
(g22
S'\xe1L\xdew\x85J\x91B'
p9402
tp9403
Rp9404
ag1
(g22
S'\xec.\xc9\x16c,\x92B'
p9405
tp9406
Rp9407
ag1
(g22
S'\\.\xb72\x96d\x93B'
p9408
tp9409
Rp9410
a(lp9411
I2008
aI2009
aI2010
aI2011
aI2012
aI2013
aI2014
aI2015
aI2016
atp9412
a(g1
(g2
(S'S7'
p9413
I0
I1
tp9414
Rp9415
(I3
S'|'
p9416
NNNI7
I1
I0
tp9417
bS'Uruguay'
p9418
tp9419
Rp9420
g1
(g2
(S'S60'
p9421
I0
I1
tp9422
Rp9423
(I3
S'|'
p9424
NNNI60
I1
I0
tp9425
bS'Improved sanitation facilities (% of population with access)'
p9426
tp9427
Rp9428
(lp9429
g1
(g22
S'W\xe0gk\xa6k\xf5A'
p9430
tp9431
Rp9432
ag1
(g22
S'\x87P\xb6-\x86@\xfaA'
p9433
tp9434
Rp9435
ag1
(g22
S'\xdfx\xf4\xbe\x8du\xfeA'
p9436
tp9437
Rp9438
ag1
(g22
S'\x9bU\xfchl]\x06B'
p9439
tp9440
Rp9441
ag1
(g22
S'\xa5k\xe1\xd4*/\x02B'
p9442
tp9443
Rp9444
ag1
(g22
S'sW\x9a\xd7\x16o\x06B'
p9445
tp9446
Rp9447
ag1
(g22
S'\xc6\xed#\x85\xf8\xc1\x0bB'
p9448
tp9449
Rp9450
ag1
(g22
S'6\xbc\x94^\xec\xd8\x0eB'
p9451
tp9452
Rp9453
ag1
(g22
S'\xba\xc9\x0e\xbd\xb9\x97\x0fB'
p9454
tp9455
Rp9456
a(lp9457
I2008
aI2009
aI2010
aI2011
aI2012
aI2013
aI2014
aI2015
aI2016
atp9458
a(g1
(g2
(S'S10'
p9459
I0
I1
tp9460
Rp9461
(I3
S'|'
p9462
NNNI10
I1
I0
tp9463
bS'Uzbekistan'
p9464
tp9465
Rp9466
g1
(g2
(S'S60'
p9467
I0
I1
tp9468
Rp9469
(I3
S'|'
p9470
NNNI60
I1
I0
tp9471
bS'Improved sanitation facilities (% of population with access)'
p9472
tp9473
Rp9474
(lp9475
(lp9476
tp9477
a(g1
(g2
(S'S7'
p9478
I0
I1
tp9479
Rp9480
(I3
S'|'
p9481
NNNI7
I1
I0
tp9482
bS'Vanuatu'
p9483
tp9484
Rp9485
g1
(g2
(S'S60'
p9486
I0
I1
tp9487
Rp9488
(I3
S'|'
p9489
NNNI60
I1
I0
tp9490
bS'Improved sanitation facilities (% of population with access)'
p9491
tp9492
Rp9493
(lp9494
g1
(g22
S'%v\xcd\x8c\xdd\xd2\xaeA'
p9495
tp9496
Rp9497
ag1
(g22
S'V\xd8\xbc^\x02#\xb0A'
p9498
tp9499
Rp9500
ag1
(g22
S'0\xb8.\x85x\xaa\xb2A'
p9501
tp9502
Rp9503
ag1
(g22
S'\xbc\xcbain_\xbdA'
p9504
tp9505
Rp9506
ag1
(g22
S'\xbbEL\xa4\xe6\x97\xb4A'
p9507
tp9508
Rp9509
ag1
(g22
S'f\x82\r}\xf21\xb9A'
p9510
tp9511
Rp9512
ag1
(g22
S'V\x0f\xb4\xb1\xf3\xc3\xbbA'
p9513
tp9514
Rp9515
ag1
(g22
S'n\xbf\xb0Rh\xa9\xbcA'
p9516
tp9517
Rp9518
ag1
(g22
S'\x8e"\x03ISH\xbbA'
p9519
tp9520
Rp9521
a(lp9522
I2008
aI2009
aI2010
aI2011
aI2012
aI2013
aI2014
aI2015
aI2016
atp9523
a(g1
(g2
(S'S7'
p9524
I0
I1
tp9525
Rp9526
(I3
S'|'
p9527
NNNI7
I1
I0
tp9528
bS'Vietnam'
p9529
tp9530
Rp9531
g1
(g2
(S'S60'
p9532
I0
I1
tp9533
Rp9534
(I3
S'|'
p9535
NNNI60
I1
I0
tp9536
bS'Improved sanitation facilities (% of population with access)'
p9537
tp9538
Rp9539
(lp9540
g1
(g22
S'\x00\x00\x10\xb0\xe6\x0e#B'
p9541
tp9542
Rp9543
ag1
(g22
S'\x00\x00P"m1\'B'
p9544
tp9545
Rp9546
ag1
(g22
S'\x00\x00\xa03\x12\x190B'
p9547
tp9548
Rp9549
ag1
(g22
S'\x00\x00\x80S\xa9\xc34B'
p9550
tp9551
Rp9552
ag1
(g22
S'\x00\x00\xc0\x9d\xf2\xd91B'
p9553
tp9554
Rp9555
ag1
(g22
S'\x00\x00\x80\xdaW~5B'
p9556
tp9557
Rp9558
ag1
(g22
S'\x00\x00@\xbbk\xb0:B'
p9559
tp9560
Rp9561
ag1
(g22
S'\x00\x00\x80\xfc4\xc8<B'
p9562
tp9563
Rp9564
ag1
(g22
S'\x00\x00@Sh\xa3@B'
p9565
tp9566
Rp9567
a(lp9568
I2008
aI2009
aI2010
aI2011
aI2012
aI2013
aI2014
aI2015
aI2016
atp9569
a(g1
(g2
(S'S21'
p9570
I0
I1
tp9571
Rp9572
(I3
S'|'
p9573
NNNI21
I1
I0
tp9574
bS'Virgin Islands (U.S.)'
p9575
tp9576
Rp9577
g1
(g2
(S'S60'
p9578
I0
I1
tp9579
Rp9580
(I3
S'|'
p9581
NNNI60
I1
I0
tp9582
bS'Improved sanitation facilities (% of population with access)'
p9583
tp9584
Rp9585
(lp9586
(lp9587
tp9588
a(g1
(g2
(S'S18'
p9589
I0
I1
tp9590
Rp9591
(I3
S'|'
p9592
NNNI18
I1
I0
tp9593
bS'West Bank and Gaza'
p9594
tp9595
Rp9596
g1
(g2
(S'S60'
p9597
I0
I1
tp9598
Rp9599
(I3
S'|'
p9600
NNNI60
I1
I0
tp9601
bS'Improved sanitation facilities (% of population with access)'
p9602
tp9603
Rp9604
(lp9605
g1
(g22
S'\xdd\xef\xd4F\xa38\xebA'
p9606
tp9607
Rp9608
ag1
(g22
S'\x9awD\xb0,k\xecA'
p9609
tp9610
Rp9611
ag1
(g22
S':\xcc\x97\x92<\x83\xf0A'
p9612
tp9613
Rp9614
ag1
(g22
S'\xa4S\xa5\x9e\xe8\xaa\xf1A'
p9615
tp9616
Rp9617
ag1
(g22
S'\xaaq\x8c\xfc\x14,\xf3A'
p9618
tp9619
Rp9620
ag1
(g22
S'NE\x85F\x8c\xc6\xf4A'
p9621
tp9622
Rp9623
ag1
(g22
S'\xcf=\x96\xf2\xf0\xdb\xf8A'
p9624
tp9625
Rp9626
ag1
(g22
S'\xadLd\x07\xfb\x18\xfbA'
p9627
tp9628
Rp9629
ag1
(g22
S'\x1e\xe1A\x04e\x9c\xfbA'
p9630
tp9631
Rp9632
a(lp9633
I2008
aI2009
aI2010
aI2011
aI2012
aI2013
aI2014
aI2015
aI2016
atp9634
a(g1
(g2
(S'S5'
p9635
I0
I1
tp9636
Rp9637
(I3
S'|'
p9638
NNNI5
I1
I0
tp9639
bS'World'
p9640
tp9641
Rp9642
g1
(g2
(S'S60'
p9643
I0
I1
tp9644
Rp9645
(I3
S'|'
p9646
NNNI60
I1
I0
tp9647
bS'Improved sanitation facilities (% of population with access)'
p9648
tp9649
Rp9650
(lp9651
g1
(g22
S'3\x04\x91\x08\xc1\x98\xabB'
p9652
tp9653
Rp9654
ag1
(g22
S'f\xe5-\xf4\xb8\x1e\xb0B'
p9655
tp9656
Rp9657
ag1
(g22
S'\x80\xcd\xb8\xa0\xac\x13\xb3B'
p9658
tp9659
Rp9660
ag1
(g22
S"\x80\n'\xb2\xa9n\xb5B"
p9661
tp9662
Rp9663
ag1
(g22
S'\x9an\x87Q\x81\xb5\xb0B'
p9664
tp9665
Rp9666
ag1
(g22
S'\x80\xacV\x9d0\x97\xb3B'
p9667
tp9668
Rp9669
ag1
(g22
S'M:\x0c\xc1\x03\x1d\xb7B'
p9670
tp9671
Rp9672
ag1
(g22
S'\x1a\x86\x12\x7f\xa5K\xb7B'
p9673
tp9674
Rp9675
ag1
(g22
S'\x80Ee\xdcp\xed\xb7B'
p9676
tp9677
Rp9678
a(lp9679
I2008
aI2009
aI2010
aI2011
aI2012
aI2013
aI2014
aI2015
aI2016
atp9680
a(g1
(g2
(S'S6'
p9681
I0
I1
tp9682
Rp9683
(I3
S'|'
p9684
NNNI6
I1
I0
tp9685
bS'Zambia'
p9686
tp9687
Rp9688
g1
(g2
(S'S60'
p9689
I0
I1
tp9690
Rp9691
(I3
S'|'
p9692
NNNI60
I1
I0
tp9693
bS'Improved sanitation facilities (% of population with access)'
p9694
tp9695
Rp9696
(lp9697
g1
(g22
S'\x85\x08\x16\xc7|"\xe8A'
p9698
tp9699
Rp9700
ag1
(g22
S'\xfe}$o\xb2n\xf0A'
p9701
tp9702
Rp9703
ag1
(g22
S'33\x0b\x8e*\x90\xf6A'
p9704
tp9705
Rp9706
ag1
(g22
S'\x00\x00\x00aj\x9a\xf9A'
p9707
tp9708
Rp9709
ag1
(g22
S'I\x11\xb4\xa0\xbd\xc1\xf0A'
p9710
tp9711
Rp9712
ag1
(g22
S'\x80\x02pS\xc3\xec\xf9A'
p9713
tp9714
Rp9715
ag1
(g22
S'A\x9f\xa4\x85\xdb@\x00B'
p9716
tp9717
Rp9718
ag1
(g22
S'\xcc4B\x83\xb6\xbd\x01B'
p9719
tp9720
Rp9721
ag1
(g22
S'\x1b/_:\x11L\x05B'
p9722
tp9723
Rp9724
a(lp9725
I2008
aI2009
aI2010
aI2011
aI2012
aI2013
aI2014
aI2015
aI2016
atp9726
a(g1
(g2
(S'S8'
p9727
I0
I1
tp9728
Rp9729
(I3
S'|'
p9730
NNNI8
I1
I0
tp9731
bS'Zimbabwe'
p9732
tp9733
Rp9734
g1
(g2
(S'S60'
p9735
I0
I1
tp9736
Rp9737
(I3
S'|'
p9738
NNNI60
I1
I0
tp9739
bS'Improved sanitation facilities (% of population with access)'
p9740
tp9741
Rp9742
(lp9743
(lp9744
tp9745
a.